; generated by ARM C/C++ Compiler, 4.1 [Build 791]
; commandline ArmCC [--list --debug -c --asm --interleave -o.\obj\messagebox.o --asm_dir=.\list\ --list_dir=.\list\ --depend=.\obj\messagebox.d --cpu=Cortex-M3 --apcs=interwork -O0 -I.\FWlib\inc -I.\user -I.\CM3 -I.\TFT -I.\GUI\AntiAlias -I.\GUI\Config -I.\GUI\ConvertColor -I.\GUI\ConvertMono -I.\GUI\Core -I.\GUI\Font -I.\GUI\GUI_X -I.\GUI\JPEG -I.\GUI\LCDDriver -I.\GUI\MemDev -I.\GUI\MultiLayer -I.\GUI\Widget -I.\GUI\WM -Id:\Keil\ARM\CMSIS\Include -Id:\Keil\ARM\INC\ST\STM32F10x -DUSE_STDPERIPH_DRIVER -DSTM32F10X_HD -DUSE_STM3210B_EVAL --omf_browse=.\obj\messagebox.crf GUI\Widget\MESSAGEBOX.c]
                          THUMB

                          AREA ||.text||, CODE, READONLY, ALIGN=2

                  MESSAGEBOX_Callback PROC
;;;65     */
;;;66     void MESSAGEBOX_Callback(WM_MESSAGE * pMsg) {
000000  e92d41f0          PUSH     {r4-r8,lr}
000004  4604              MOV      r4,r0
;;;67       WM_HWIN hWin = pMsg->hWin;
000006  f9b45004          LDRSH    r5,[r4,#4]
;;;68       switch (pMsg->MsgId) {
00000a  6820              LDR      r0,[r4,#0]
00000c  280e              CMP      r0,#0xe
00000e  d00a              BEQ      |L1.38|
000010  281d              CMP      r0,#0x1d
000012  d002              BEQ      |L1.26|
000014  2826              CMP      r0,#0x26
000016  d12c              BNE      |L1.114|
000018  e01a              B        |L1.80|
                  |L1.26|
;;;69         case WM_INIT_DIALOG:
;;;70           FRAMEWIN_SetClientColor(hWin, MESSAGEBOX_BKCOLOR);
00001a  f06f417f          MVN      r1,#0xff000000
00001e  4628              MOV      r0,r5
000020  f7fffffe          BL       FRAMEWIN_SetClientColor
;;;71           break;
000024  e029              B        |L1.122|
                  |L1.38|
;;;72         case WM_KEY:
;;;73           {
;;;74             int Key = ((const WM_KEY_INFO*)(pMsg->Data.p))->Key;
000026  68a0              LDR      r0,[r4,#8]
000028  6806              LDR      r6,[r0,#0]
;;;75             if (((const WM_KEY_INFO*)(pMsg->Data.p))->PressedCnt) {
00002a  68a0              LDR      r0,[r4,#8]
00002c  6840              LDR      r0,[r0,#4]
00002e  b170              CBZ      r0,|L1.78|
;;;76               switch (Key) {
000030  2e0d              CMP      r6,#0xd
000032  d006              BEQ      |L1.66|
000034  2e1b              CMP      r6,#0x1b
000036  d109              BNE      |L1.76|
;;;77               case GUI_KEY_ESCAPE:
;;;78                 GUI_EndDialog(hWin, 1);             /* End dialog with return value 1 if <ESC> is pressed */
000038  2101              MOVS     r1,#1
00003a  4628              MOV      r0,r5
00003c  f7fffffe          BL       GUI_EndDialog
;;;79                 break;
000040  e004              B        |L1.76|
                  |L1.66|
;;;80               case GUI_KEY_ENTER:
;;;81                 GUI_EndDialog(hWin, 0);             /* End dialog with return value 0 if <ENTER> is pressed */
000042  2100              MOVS     r1,#0
000044  4628              MOV      r0,r5
000046  f7fffffe          BL       GUI_EndDialog
;;;82                 break;
00004a  bf00              NOP      
                  |L1.76|
00004c  bf00              NOP                            ;79
                  |L1.78|
;;;83               }
;;;84             }
;;;85           }
;;;86           break;
00004e  e014              B        |L1.122|
                  |L1.80|
;;;87         case WM_NOTIFY_PARENT:
;;;88           {
;;;89             int NCode = pMsg->Data.v;             /* Get notification code */
000050  68a6              LDR      r6,[r4,#8]
;;;90             int Id    = WM_GetId(pMsg->hWinSrc);  /* Get control ID */
000052  f9b40006          LDRSH    r0,[r4,#6]
000056  f7fffffe          BL       WM_GetId
00005a  4607              MOV      r7,r0
;;;91             switch (NCode) {
00005c  2e02              CMP      r6,#2
00005e  d106              BNE      |L1.110|
;;;92               case WM_NOTIFICATION_RELEASED:      /* React only if released */
;;;93                 if (Id == GUI_ID_OK) {
000060  2f01              CMP      r7,#1
000062  d103              BNE      |L1.108|
;;;94                   GUI_EndDialog(hWin, 0);         /* End dialog with return value 0 if OK */
000064  2100              MOVS     r1,#0
000066  4628              MOV      r0,r5
000068  f7fffffe          BL       GUI_EndDialog
                  |L1.108|
;;;95                 }
;;;96                 break;
00006c  bf00              NOP      
                  |L1.110|
00006e  bf00              NOP      
;;;97             }
;;;98           }
;;;99           break;
000070  e003              B        |L1.122|
                  |L1.114|
;;;100        default:
;;;101          WM_DefaultProc(pMsg);
000072  4620              MOV      r0,r4
000074  f7fffffe          BL       WM_DefaultProc
000078  bf00              NOP                            ;68
                  |L1.122|
00007a  bf00              NOP                            ;71
;;;102      }
;;;103    }
00007c  e8bd81f0          POP      {r4-r8,pc}
;;;104    
                          ENDP

                  MESSAGEBOX_Create PROC
;;;108    */
;;;109    WM_HWIN MESSAGEBOX_Create(const char * sMessage, const char * sCaption, int Flags) {
000080  e92d4ff0          PUSH     {r4-r11,lr}
000084  b09d              SUB      sp,sp,#0x74
000086  4681              MOV      r9,r0
000088  468a              MOV      r10,r1
00008a  4693              MOV      r11,r2
;;;110      GUI_WIDGET_CREATE_INFO _aDialogCreate[3];                                     /* 0: FrameWin, 1: Text, 2: Button */
;;;111      int BorderSize = FRAMEWIN_GetDefaultBorderSize();                             /* Default border size of frame window */
00008c  f7fffffe          BL       FRAMEWIN_GetDefaultBorderSize
000090  4604              MOV      r4,r0
;;;112      int xSizeFrame = MESSAGEBOX_XSIZEOK + 2 * BorderSize + MESSAGEBOX_BORDER * 2; /* XSize of frame window */
000092  ea4f0044          LSL      r0,r4,#1
000096  f100053a          ADD      r5,r0,#0x3a
;;;113      int ySizeFrame;                                                               /* YSize of frame window */
;;;114      int x0, y0;                                                                   /* Position of frame window */
;;;115      int xSizeMessage;                                                             /* Length in pixels of message */
;;;116      int xSizeCaption;                                                             /* Length in pixels of caption */
;;;117      int ySizeCaption;                                                             /* YSize of caption */
;;;118      int ySizeMessage;                                                             /* YSize of message */
;;;119      WM_HWIN hBox;
;;;120      GUI_RECT Rect;
;;;121      const GUI_FONT GUI_UNI_PTR * pOldFont;
;;;122      /* Zeroinit variables */
;;;123      memset(_aDialogCreate, 0, sizeof(_aDialogCreate));
00009a  f04f0148          MOV      r1,#0x48
00009e  a80b              ADD      r0,sp,#0x2c
0000a0  f7fffffe          BL       __aeabi_memclr4
;;;124      /* Get dimension of message */
;;;125      pOldFont = GUI_SetFont(TEXT_GetDefaultFont());
0000a4  f7fffffe          BL       TEXT_GetDefaultFont
0000a8  9002              STR      r0,[sp,#8]
0000aa  f7fffffe          BL       GUI_SetFont
0000ae  9003              STR      r0,[sp,#0xc]
;;;126      GUI_GetTextExtend(&Rect, sMessage, 255);
0000b0  22ff              MOVS     r2,#0xff
0000b2  4649              MOV      r1,r9
0000b4  a804              ADD      r0,sp,#0x10
0000b6  f7fffffe          BL       GUI_GetTextExtend
;;;127      xSizeMessage = Rect.x1 - Rect.x0 + MESSAGEBOX_BORDER * 2;
0000ba  f9bd0014          LDRSH    r0,[sp,#0x14]
0000be  f9bd1010          LDRSH    r1,[sp,#0x10]
0000c2  eba00001          SUB      r0,r0,r1
0000c6  f1000708          ADD      r7,r0,#8
;;;128      ySizeMessage = Rect.y1 - Rect.y0 + 1;
0000ca  f9bd0016          LDRSH    r0,[sp,#0x16]
0000ce  f9bd1012          LDRSH    r1,[sp,#0x12]
0000d2  eba00001          SUB      r0,r0,r1
0000d6  f1000001          ADD      r0,r0,#1
0000da  9007              STR      r0,[sp,#0x1c]
;;;129      if (xSizeFrame < (xSizeMessage + 4 + MESSAGEBOX_BORDER * 2)) {
0000dc  f107000c          ADD      r0,r7,#0xc
0000e0  4285              CMP      r5,r0
0000e2  da00              BGE      |L1.230|
;;;130        xSizeFrame = xSizeMessage + 4 + MESSAGEBOX_BORDER * 2;
0000e4  4605              MOV      r5,r0
                  |L1.230|
;;;131      }
;;;132      ySizeCaption = GUI_GetYSizeOfFont(FRAMEWIN_GetDefaultFont());
0000e6  f7fffffe          BL       FRAMEWIN_GetDefaultFont
0000ea  9002              STR      r0,[sp,#8]
0000ec  f7fffffe          BL       GUI_GetYSizeOfFont
0000f0  9008              STR      r0,[sp,#0x20]
;;;133      ySizeFrame = ySizeMessage +            /* size of message */
0000f2  9807              LDR      r0,[sp,#0x1c]
0000f4  f1000114          ADD      r1,r0,#0x14
0000f8  9808              LDR      r0,[sp,#0x20]
0000fa  4408              ADD      r0,r0,r1
0000fc  f100000c          ADD      r0,r0,#0xc
000100  eb000044          ADD      r0,r0,r4,LSL #1
000104  f1000601          ADD      r6,r0,#1
;;;134                   MESSAGEBOX_YSIZEOK +      /* size of button */
;;;135                   ySizeCaption +            /* caption size */
;;;136                   MESSAGEBOX_BORDER * 3 +   /* inner border - text, text - button, button - bottom */
;;;137                   BorderSize * 2 +          /* top & bottom border */
;;;138                   1;                        /* inner border */
;;;139      /* Get xsize of caption */
;;;140      xSizeCaption = GUI_GetStringDistX(sCaption);
000108  4650              MOV      r0,r10
00010a  f7fffffe          BL       GUI_GetStringDistX
00010e  4680              MOV      r8,r0
;;;141      if (xSizeFrame < xSizeCaption + BorderSize * 2) {
000110  eb080044          ADD      r0,r8,r4,LSL #1
000114  42a8              CMP      r0,r5
000116  dd01              BLE      |L1.284|
;;;142        xSizeFrame = xSizeCaption + BorderSize * 2;
000118  eb080544          ADD      r5,r8,r4,LSL #1
                  |L1.284|
;;;143      }
;;;144      /* Check maximum */
;;;145      if (xSizeFrame > LCD_GET_XSIZE()) {
00011c  f7fffffe          BL       LCD_GetXSize
000120  42a8              CMP      r0,r5
000122  da02              BGE      |L1.298|
;;;146        xSizeFrame = LCD_GET_XSIZE();
000124  f7fffffe          BL       LCD_GetXSize
000128  4605              MOV      r5,r0
                  |L1.298|
;;;147      }
;;;148      if (ySizeFrame > LCD_GET_YSIZE()) {
00012a  f7fffffe          BL       LCD_GetYSize
00012e  42b0              CMP      r0,r6
000130  da02              BGE      |L1.312|
;;;149        ySizeFrame = LCD_GET_YSIZE();
000132  f7fffffe          BL       LCD_GetYSize
000136  4606              MOV      r6,r0
                  |L1.312|
;;;150      }
;;;151      /* Calculate position of framewin */
;;;152      x0 = GUI_OrgX + (LCD_GET_XSIZE() - xSizeFrame) / 2;
000138  f7fffffe          BL       LCD_GetXSize
00013c  eba00005          SUB      r0,r0,r5
000140  9002              STR      r0,[sp,#8]
000142  eb0070d0          ADD      r0,r0,r0,LSR #31
000146  4949              LDR      r1,|L1.620|
000148  f9b11000          LDRSH    r1,[r1,#0]  ; GUI_OrgX
00014c  eb010060          ADD      r0,r1,r0,ASR #1
000150  900a              STR      r0,[sp,#0x28]
;;;153      y0 = GUI_OrgY + (LCD_GET_YSIZE() - ySizeFrame) / 2;
000152  f7fffffe          BL       LCD_GetYSize
000156  eba00006          SUB      r0,r0,r6
00015a  9002              STR      r0,[sp,#8]
00015c  eb0070d0          ADD      r0,r0,r0,LSR #31
000160  4943              LDR      r1,|L1.624|
000162  f9b11000          LDRSH    r1,[r1,#0]  ; GUI_OrgY
000166  eb010060          ADD      r0,r1,r0,ASR #1
00016a  9009              STR      r0,[sp,#0x24]
;;;154      /* restore modified Context */
;;;155      GUI_SetFont(pOldFont);
00016c  9803              LDR      r0,[sp,#0xc]
00016e  f7fffffe          BL       GUI_SetFont
;;;156      /* Fill frame win resource */
;;;157      _aDialogCreate[0].pfCreateIndirect = FRAMEWIN_CreateIndirect;
000172  4840              LDR      r0,|L1.628|
000174  900b              STR      r0,[sp,#0x2c]
;;;158      _aDialogCreate[0].pName            = sCaption;
000176  f8cda030          STR      r10,[sp,#0x30]
;;;159      _aDialogCreate[0].x0               = x0;
00017a  980a              LDR      r0,[sp,#0x28]
00017c  b200              SXTH     r0,r0
00017e  f8ad0036          STRH     r0,[sp,#0x36]
;;;160      _aDialogCreate[0].y0               = y0;
000182  9809              LDR      r0,[sp,#0x24]
000184  b200              SXTH     r0,r0
000186  f8ad0038          STRH     r0,[sp,#0x38]
;;;161      _aDialogCreate[0].xSize            = xSizeFrame;
00018a  b228              SXTH     r0,r5
00018c  f8ad003a          STRH     r0,[sp,#0x3a]
;;;162      _aDialogCreate[0].ySize            = ySizeFrame;
000190  b230              SXTH     r0,r6
000192  f8ad003c          STRH     r0,[sp,#0x3c]
;;;163      if (Flags & GUI_MESSAGEBOX_CF_MOVEABLE) {
000196  f01b0f01          TST      r11,#1
00019a  d003              BEQ      |L1.420|
;;;164        _aDialogCreate[0].Flags          = FRAMEWIN_CF_MOVEABLE;
00019c  f04f0010          MOV      r0,#0x10
0001a0  f8ad003e          STRH     r0,[sp,#0x3e]
                  |L1.420|
;;;165      }
;;;166      /* Fill text resource */
;;;167      _aDialogCreate[1].pfCreateIndirect = TEXT_CreateIndirect;
0001a4  4834              LDR      r0,|L1.632|
0001a6  9011              STR      r0,[sp,#0x44]
;;;168      _aDialogCreate[1].pName            = sMessage;
0001a8  f8cd9048          STR      r9,[sp,#0x48]
;;;169      _aDialogCreate[1].x0               = (xSizeFrame - xSizeMessage - BorderSize * 2) / 2;
0001ac  eba50107          SUB      r1,r5,r7
0001b0  eba10044          SUB      r0,r1,r4,LSL #1
0001b4  eb0071d0          ADD      r1,r0,r0,LSR #31
0001b8  ea4f0161          ASR      r1,r1,#1
0001bc  b20a              SXTH     r2,r1
0001be  a90b              ADD      r1,sp,#0x2c
0001c0  844a              STRH     r2,[r1,#0x22]
;;;170      _aDialogCreate[1].y0               = MESSAGEBOX_BORDER;
0001c2  f04f0104          MOV      r1,#4
0001c6  a80b              ADD      r0,sp,#0x2c
0001c8  8481              STRH     r1,[r0,#0x24]
;;;171      _aDialogCreate[1].xSize            = xSizeMessage;
0001ca  b239              SXTH     r1,r7
0001cc  84c1              STRH     r1,[r0,#0x26]
;;;172      _aDialogCreate[1].ySize            = ySizeMessage;
0001ce  9807              LDR      r0,[sp,#0x1c]
0001d0  b201              SXTH     r1,r0
0001d2  a80b              ADD      r0,sp,#0x2c
0001d4  8501              STRH     r1,[r0,#0x28]
;;;173      _aDialogCreate[1].Para             = GUI_TA_TOP | GUI_TA_HCENTER;
0001d6  f04f0102          MOV      r1,#2
0001da  9116              STR      r1,[sp,#0x58]
;;;174      /* Fill button resource */
;;;175      _aDialogCreate[2].pfCreateIndirect = BUTTON_CreateIndirect;
0001dc  4827              LDR      r0,|L1.636|
0001de  9017              STR      r0,[sp,#0x5c]
;;;176      _aDialogCreate[2].pName            = "OK";
0001e0  a127              ADR      r1,|L1.640|
0001e2  9118              STR      r1,[sp,#0x60]
;;;177      _aDialogCreate[2].Id               = GUI_ID_OK;
0001e4  f04f0101          MOV      r1,#1
0001e8  a80b              ADD      r0,sp,#0x2c
0001ea  8701              STRH     r1,[r0,#0x38]
;;;178      _aDialogCreate[2].x0               = (xSizeFrame - MESSAGEBOX_XSIZEOK - BorderSize * 2) / 2;
0001ec  f1a50132          SUB      r1,r5,#0x32
0001f0  eba10044          SUB      r0,r1,r4,LSL #1
0001f4  eb0071d0          ADD      r1,r0,r0,LSR #31
0001f8  ea4f0161          ASR      r1,r1,#1
0001fc  b20a              SXTH     r2,r1
0001fe  a90b              ADD      r1,sp,#0x2c
000200  874a              STRH     r2,[r1,#0x3a]
;;;179      _aDialogCreate[2].y0               = MESSAGEBOX_BORDER * 2 + ySizeMessage;
000202  9807              LDR      r0,[sp,#0x1c]
000204  f1000008          ADD      r0,r0,#8
000208  b201              SXTH     r1,r0
00020a  a80b              ADD      r0,sp,#0x2c
00020c  8781              STRH     r1,[r0,#0x3c]
;;;180      _aDialogCreate[2].xSize            = MESSAGEBOX_XSIZEOK;
00020e  f04f0132          MOV      r1,#0x32
000212  87c1              STRH     r1,[r0,#0x3e]
;;;181      _aDialogCreate[2].ySize            = MESSAGEBOX_YSIZEOK;
000214  f04f0114          MOV      r1,#0x14
000218  f8ad106c          STRH     r1,[sp,#0x6c]
;;;182      /* Create dialog */
;;;183      hBox = GUI_CreateDialogBox(_aDialogCreate, GUI_COUNTOF(_aDialogCreate), MESSAGEBOX_Callback, 0, 0, 0);
00021c  f04f0000          MOV      r0,#0
000220  9000              STR      r0,[sp,#0]
000222  4603              MOV      r3,r0
000224  f2af2227          ADR      r2,MESSAGEBOX_Callback + 1
000228  f04f0103          MOV      r1,#3
00022c  9001              STR      r0,[sp,#4]
00022e  a80b              ADD      r0,sp,#0x2c
000230  f7fffffe          BL       GUI_CreateDialogBox
000234  9006              STR      r0,[sp,#0x18]
;;;184      if (Flags & GUI_MESSAGEBOX_CF_MODAL) {
000236  f01b0f02          TST      r11,#2
00023a  d002              BEQ      |L1.578|
;;;185        WM_MakeModal(hBox);
00023c  9806              LDR      r0,[sp,#0x18]
00023e  f7fffffe          BL       WM_MakeModal
                  |L1.578|
;;;186      }
;;;187      return hBox;
000242  9806              LDR      r0,[sp,#0x18]
;;;188    }
000244  b01d              ADD      sp,sp,#0x74
000246  e8bd8ff0          POP      {r4-r11,pc}
;;;189    
                          ENDP

                  GUI_MessageBox PROC
;;;193    */
;;;194    int GUI_MessageBox(const char * sMessage, const char * sCaption, int Flags) {
00024a  e92d41f0          PUSH     {r4-r8,lr}
00024e  4604              MOV      r4,r0
000250  460d              MOV      r5,r1
000252  4616              MOV      r6,r2
;;;195      WM_HWIN hWin;
;;;196      hWin = MESSAGEBOX_Create(sMessage, sCaption, Flags);
000254  4632              MOV      r2,r6
000256  4629              MOV      r1,r5
000258  4620              MOV      r0,r4
00025a  f7fffffe          BL       MESSAGEBOX_Create
00025e  4607              MOV      r7,r0
;;;197      /* Exec dialog */
;;;198      return GUI_ExecCreatedDialog(hWin);
000260  4638              MOV      r0,r7
000262  f7fffffe          BL       GUI_ExecCreatedDialog
;;;199    }
000266  e8bd81f0          POP      {r4-r8,pc}
;;;200    
                          ENDP

00026a  0000              DCW      0x0000
                  |L1.620|
                          DCD      GUI_OrgX
                  |L1.624|
                          DCD      GUI_OrgY
                  |L1.628|
                          DCD      FRAMEWIN_CreateIndirect
                  |L1.632|
                          DCD      TEXT_CreateIndirect
                  |L1.636|
                          DCD      BUTTON_CreateIndirect
                  |L1.640|
000280  4f4b00            DCB      "OK",0
000283  00                DCB      0
