; generated by Component: ARM Compiler 5.05 update 2 (build 169) Tool: ArmCC [4d0f38]
; commandline ArmCC [--list --debug -c --asm --interleave -o.\obj\crc32.o --asm_dir=.\list\ --list_dir=.\list\ --depend=.\obj\crc32.d --cpu=Cortex-M3 --apcs=interwork -O0 --diag_suppress=9931 -I.\FWlib\inc -I.\user -I.\CM3 -I.\MALLOC -I.\TFT -I.\EMWIN\EMWIN_INC -I.\EMWIN\DEMO -I.\FATFS -I.\SDIO -I.\PNG -IE:\material\GUI\STM32ᆦᡌ-emwin+fatfs\RTE -Id:\Keil_v5\ARM\PACK\Keil\STM32F1xx_DFP\1.1.0\Device\Include -Id:\Keil_v5\ARM\CMSIS\Include -D__UVISION_VERSION=515 -DSTM32F10X_HD -DUSE_STDPERIPH_DRIVER -DSTM32F10X_HD -DUSE_STM3210B_EVAL --omf_browse=.\obj\crc32.crf PNG\crc32.c]
                          THUMB

                          AREA ||.text||, CODE, READONLY, ALIGN=2

                  get_crc_table PROC
;;;204     */
;;;205    const unsigned long FAR * ZEXPORT get_crc_table()
000000  48fe              LDR      r0,|L1.1020|
;;;206    {
;;;207    #ifdef DYNAMIC_CRC_TABLE
;;;208        if (crc_table_empty)
;;;209            make_crc_table();
;;;210    #endif /* DYNAMIC_CRC_TABLE */
;;;211        return (const unsigned long FAR *)crc_table;
;;;212    }
000002  4770              BX       lr
;;;213    
                          ENDP

                  crc32_big PROC
;;;301    /* ========================================================================= */
;;;302    local unsigned long crc32_big(crc, buf, len)
000004  b5f0              PUSH     {r4-r7,lr}
;;;303        unsigned long crc;
;;;304        const unsigned char FAR *buf;
;;;305        unsigned len;
;;;306    {
000006  4605              MOV      r5,r0
000008  460c              MOV      r4,r1
00000a  4613              MOV      r3,r2
;;;307        register u4 c;
;;;308        register const u4 FAR *buf4;
;;;309    
;;;310        c = REV((u4)crc);
00000c  f44f407f          MOV      r0,#0xff00
000010  ea002015          AND      r0,r0,r5,LSR #8
000014  eb006015          ADD      r0,r0,r5,LSR #24
000018  f405467f          AND      r6,r5,#0xff00
00001c  eb002006          ADD      r0,r0,r6,LSL #8
000020  eb006105          ADD      r1,r0,r5,LSL #24
;;;311        c = ~c;
000024  43c9              MVNS     r1,r1
;;;312        while (len && ((ptrdiff_t)buf & 3)) {
000026  e009              B        |L1.60|
                  |L1.40|
;;;313            c = crc_table[4][(c >> 24) ^ *buf++] ^ (c << 8);
000028  f8146b01          LDRB     r6,[r4],#1
00002c  ea866611          EOR      r6,r6,r1,LSR #24
000030  48f3              LDR      r0,|L1.1024|
000032  f8500026          LDR      r0,[r0,r6,LSL #2]
000036  ea802101          EOR      r1,r0,r1,LSL #8
;;;314            len--;
00003a  1e5b              SUBS     r3,r3,#1
                  |L1.60|
00003c  b11b              CBZ      r3,|L1.70|
00003e  f0040003          AND      r0,r4,#3              ;312
000042  2800              CMP      r0,#0                 ;312
000044  d1f0              BNE      |L1.40|
                  |L1.70|
;;;315        }
;;;316    
;;;317        buf4 = (const u4 FAR *)(const void FAR *)buf;
000046  4622              MOV      r2,r4
;;;318        buf4--;
000048  1f12              SUBS     r2,r2,#4
;;;319        while (len >= 32) {
00004a  e0d0              B        |L1.494|
                  |L1.76|
;;;320            DOBIG32;
00004c  1d10              ADDS     r0,r2,#4
00004e  4602              MOV      r2,r0
000050  6800              LDR      r0,[r0,#0]
000052  4041              EORS     r1,r1,r0
000054  b2ce              UXTB     r6,r1
000056  48ea              LDR      r0,|L1.1024|
000058  f8500026          LDR      r0,[r0,r6,LSL #2]
00005c  f3c12607          UBFX     r6,r1,#8,#8
000060  00b7              LSLS     r7,r6,#2
000062  4ee8              LDR      r6,|L1.1028|
000064  59f6              LDR      r6,[r6,r7]
000066  4070              EORS     r0,r0,r6
000068  f3c14607          UBFX     r6,r1,#16,#8
00006c  00b7              LSLS     r7,r6,#2
00006e  4ee6              LDR      r6,|L1.1032|
000070  59f6              LDR      r6,[r6,r7]
000072  4070              EORS     r0,r0,r6
000074  0e0f              LSRS     r7,r1,#24
000076  4ee5              LDR      r6,|L1.1036|
000078  f8566027          LDR      r6,[r6,r7,LSL #2]
00007c  ea800106          EOR      r1,r0,r6
000080  1d10              ADDS     r0,r2,#4
000082  4602              MOV      r2,r0
000084  6800              LDR      r0,[r0,#0]
000086  4041              EORS     r1,r1,r0
000088  b2ce              UXTB     r6,r1
00008a  48dd              LDR      r0,|L1.1024|
00008c  f8500026          LDR      r0,[r0,r6,LSL #2]
000090  f3c12607          UBFX     r6,r1,#8,#8
000094  00b7              LSLS     r7,r6,#2
000096  4edb              LDR      r6,|L1.1028|
000098  59f6              LDR      r6,[r6,r7]
00009a  4070              EORS     r0,r0,r6
00009c  f3c14607          UBFX     r6,r1,#16,#8
0000a0  00b7              LSLS     r7,r6,#2
0000a2  4ed9              LDR      r6,|L1.1032|
0000a4  59f6              LDR      r6,[r6,r7]
0000a6  4070              EORS     r0,r0,r6
0000a8  0e0f              LSRS     r7,r1,#24
0000aa  4ed8              LDR      r6,|L1.1036|
0000ac  f8566027          LDR      r6,[r6,r7,LSL #2]
0000b0  ea800106          EOR      r1,r0,r6
0000b4  1d10              ADDS     r0,r2,#4
0000b6  4602              MOV      r2,r0
0000b8  6800              LDR      r0,[r0,#0]
0000ba  4041              EORS     r1,r1,r0
0000bc  b2ce              UXTB     r6,r1
0000be  48d0              LDR      r0,|L1.1024|
0000c0  f8500026          LDR      r0,[r0,r6,LSL #2]
0000c4  f3c12607          UBFX     r6,r1,#8,#8
0000c8  00b7              LSLS     r7,r6,#2
0000ca  4ece              LDR      r6,|L1.1028|
0000cc  59f6              LDR      r6,[r6,r7]
0000ce  4070              EORS     r0,r0,r6
0000d0  f3c14607          UBFX     r6,r1,#16,#8
0000d4  00b7              LSLS     r7,r6,#2
0000d6  4ecc              LDR      r6,|L1.1032|
0000d8  59f6              LDR      r6,[r6,r7]
0000da  4070              EORS     r0,r0,r6
0000dc  0e0f              LSRS     r7,r1,#24
0000de  4ecb              LDR      r6,|L1.1036|
0000e0  f8566027          LDR      r6,[r6,r7,LSL #2]
0000e4  ea800106          EOR      r1,r0,r6
0000e8  1d10              ADDS     r0,r2,#4
0000ea  4602              MOV      r2,r0
0000ec  6800              LDR      r0,[r0,#0]
0000ee  4041              EORS     r1,r1,r0
0000f0  b2ce              UXTB     r6,r1
0000f2  48c3              LDR      r0,|L1.1024|
0000f4  f8500026          LDR      r0,[r0,r6,LSL #2]
0000f8  f3c12607          UBFX     r6,r1,#8,#8
0000fc  00b7              LSLS     r7,r6,#2
0000fe  4ec1              LDR      r6,|L1.1028|
000100  59f6              LDR      r6,[r6,r7]
000102  4070              EORS     r0,r0,r6
000104  f3c14607          UBFX     r6,r1,#16,#8
000108  00b7              LSLS     r7,r6,#2
00010a  4ebf              LDR      r6,|L1.1032|
00010c  59f6              LDR      r6,[r6,r7]
00010e  4070              EORS     r0,r0,r6
000110  0e0f              LSRS     r7,r1,#24
000112  4ebe              LDR      r6,|L1.1036|
000114  f8566027          LDR      r6,[r6,r7,LSL #2]
000118  ea800106          EOR      r1,r0,r6
00011c  1d10              ADDS     r0,r2,#4
00011e  4602              MOV      r2,r0
000120  6800              LDR      r0,[r0,#0]
000122  4041              EORS     r1,r1,r0
000124  b2ce              UXTB     r6,r1
000126  48b6              LDR      r0,|L1.1024|
000128  f8500026          LDR      r0,[r0,r6,LSL #2]
00012c  f3c12607          UBFX     r6,r1,#8,#8
000130  00b7              LSLS     r7,r6,#2
000132  4eb4              LDR      r6,|L1.1028|
000134  59f6              LDR      r6,[r6,r7]
000136  4070              EORS     r0,r0,r6
000138  f3c14607          UBFX     r6,r1,#16,#8
00013c  00b7              LSLS     r7,r6,#2
00013e  4eb2              LDR      r6,|L1.1032|
000140  59f6              LDR      r6,[r6,r7]
000142  4070              EORS     r0,r0,r6
000144  0e0f              LSRS     r7,r1,#24
000146  4eb1              LDR      r6,|L1.1036|
000148  f8566027          LDR      r6,[r6,r7,LSL #2]
00014c  ea800106          EOR      r1,r0,r6
000150  1d10              ADDS     r0,r2,#4
000152  4602              MOV      r2,r0
000154  6800              LDR      r0,[r0,#0]
000156  4041              EORS     r1,r1,r0
000158  b2ce              UXTB     r6,r1
00015a  48a9              LDR      r0,|L1.1024|
00015c  f8500026          LDR      r0,[r0,r6,LSL #2]
000160  f3c12607          UBFX     r6,r1,#8,#8
000164  00b7              LSLS     r7,r6,#2
000166  4ea7              LDR      r6,|L1.1028|
000168  59f6              LDR      r6,[r6,r7]
00016a  4070              EORS     r0,r0,r6
00016c  f3c14607          UBFX     r6,r1,#16,#8
000170  00b7              LSLS     r7,r6,#2
000172  4ea5              LDR      r6,|L1.1032|
000174  59f6              LDR      r6,[r6,r7]
000176  4070              EORS     r0,r0,r6
000178  0e0f              LSRS     r7,r1,#24
00017a  4ea4              LDR      r6,|L1.1036|
00017c  f8566027          LDR      r6,[r6,r7,LSL #2]
000180  ea800106          EOR      r1,r0,r6
000184  1d10              ADDS     r0,r2,#4
000186  4602              MOV      r2,r0
000188  6800              LDR      r0,[r0,#0]
00018a  4041              EORS     r1,r1,r0
00018c  b2ce              UXTB     r6,r1
00018e  489c              LDR      r0,|L1.1024|
000190  f8500026          LDR      r0,[r0,r6,LSL #2]
000194  f3c12607          UBFX     r6,r1,#8,#8
000198  00b7              LSLS     r7,r6,#2
00019a  4e9a              LDR      r6,|L1.1028|
00019c  59f6              LDR      r6,[r6,r7]
00019e  4070              EORS     r0,r0,r6
0001a0  f3c14607          UBFX     r6,r1,#16,#8
0001a4  00b7              LSLS     r7,r6,#2
0001a6  4e98              LDR      r6,|L1.1032|
0001a8  59f6              LDR      r6,[r6,r7]
0001aa  4070              EORS     r0,r0,r6
0001ac  0e0f              LSRS     r7,r1,#24
0001ae  4e97              LDR      r6,|L1.1036|
0001b0  f8566027          LDR      r6,[r6,r7,LSL #2]
0001b4  ea800106          EOR      r1,r0,r6
0001b8  1d10              ADDS     r0,r2,#4
0001ba  4602              MOV      r2,r0
0001bc  6800              LDR      r0,[r0,#0]
0001be  4041              EORS     r1,r1,r0
0001c0  b2ce              UXTB     r6,r1
0001c2  488f              LDR      r0,|L1.1024|
0001c4  f8500026          LDR      r0,[r0,r6,LSL #2]
0001c8  f3c12607          UBFX     r6,r1,#8,#8
0001cc  00b7              LSLS     r7,r6,#2
0001ce  4e8d              LDR      r6,|L1.1028|
0001d0  59f6              LDR      r6,[r6,r7]
0001d2  4070              EORS     r0,r0,r6
0001d4  f3c14607          UBFX     r6,r1,#16,#8
0001d8  00b7              LSLS     r7,r6,#2
0001da  4e8b              LDR      r6,|L1.1032|
0001dc  59f6              LDR      r6,[r6,r7]
0001de  4070              EORS     r0,r0,r6
0001e0  0e0f              LSRS     r7,r1,#24
0001e2  4e8a              LDR      r6,|L1.1036|
0001e4  f8566027          LDR      r6,[r6,r7,LSL #2]
0001e8  ea800106          EOR      r1,r0,r6
;;;321            len -= 32;
0001ec  3b20              SUBS     r3,r3,#0x20
                  |L1.494|
0001ee  2b20              CMP      r3,#0x20              ;319
0001f0  f4bfaf2c          BCS      |L1.76|
;;;322        }
;;;323        while (len >= 4) {
0001f4  e01a              B        |L1.556|
                  |L1.502|
;;;324            DOBIG4;
0001f6  1d10              ADDS     r0,r2,#4
0001f8  4602              MOV      r2,r0
0001fa  6800              LDR      r0,[r0,#0]
0001fc  4041              EORS     r1,r1,r0
0001fe  b2ce              UXTB     r6,r1
000200  487f              LDR      r0,|L1.1024|
000202  f8500026          LDR      r0,[r0,r6,LSL #2]
000206  f3c12607          UBFX     r6,r1,#8,#8
00020a  00b7              LSLS     r7,r6,#2
00020c  4e7d              LDR      r6,|L1.1028|
00020e  59f6              LDR      r6,[r6,r7]
000210  4070              EORS     r0,r0,r6
000212  f3c14607          UBFX     r6,r1,#16,#8
000216  00b7              LSLS     r7,r6,#2
000218  4e7b              LDR      r6,|L1.1032|
00021a  59f6              LDR      r6,[r6,r7]
00021c  4070              EORS     r0,r0,r6
00021e  0e0f              LSRS     r7,r1,#24
000220  4e7a              LDR      r6,|L1.1036|
000222  f8566027          LDR      r6,[r6,r7,LSL #2]
000226  ea800106          EOR      r1,r0,r6
;;;325            len -= 4;
00022a  1f1b              SUBS     r3,r3,#4
                  |L1.556|
00022c  2b04              CMP      r3,#4                 ;323
00022e  d2e2              BCS      |L1.502|
;;;326        }
;;;327        buf4++;
000230  1d12              ADDS     r2,r2,#4
;;;328        buf = (const unsigned char FAR *)buf4;
000232  4614              MOV      r4,r2
;;;329    
;;;330        if (len) do {
000234  b163              CBZ      r3,|L1.592|
000236  bf00              NOP      
                  |L1.568|
;;;331            c = crc_table[4][(c >> 24) ^ *buf++] ^ (c << 8);
000238  f8146b01          LDRB     r6,[r4],#1
00023c  ea866611          EOR      r6,r6,r1,LSR #24
000240  486f              LDR      r0,|L1.1024|
000242  f8500026          LDR      r0,[r0,r6,LSL #2]
000246  ea802101          EOR      r1,r0,r1,LSL #8
;;;332        } while (--len);
00024a  1e58              SUBS     r0,r3,#1
00024c  0003              MOVS     r3,r0
00024e  d1f3              BNE      |L1.568|
                  |L1.592|
;;;333        c = ~c;
000250  43c9              MVNS     r1,r1
;;;334        return (unsigned long)(REV(c));
000252  f44f407f          MOV      r0,#0xff00
000256  ea002011          AND      r0,r0,r1,LSR #8
00025a  eb006011          ADD      r0,r0,r1,LSR #24
00025e  f401467f          AND      r6,r1,#0xff00
000262  eb002006          ADD      r0,r0,r6,LSL #8
000266  eb006001          ADD      r0,r0,r1,LSL #24
;;;335    }
00026a  bdf0              POP      {r4-r7,pc}
;;;336    
                          ENDP

                  crc32_little PROC
;;;261    /* ========================================================================= */
;;;262    local unsigned long crc32_little(crc, buf, len)
00026c  b5f0              PUSH     {r4-r7,lr}
;;;263        unsigned long crc;
;;;264        const unsigned char FAR *buf;
;;;265        unsigned len;
;;;266    {
00026e  4604              MOV      r4,r0
000270  460b              MOV      r3,r1
;;;267        register u4 c;
;;;268        register const u4 FAR *buf4;
;;;269    
;;;270        c = (u4)crc;
000272  4620              MOV      r0,r4
;;;271        c = ~c;
000274  43c0              MVNS     r0,r0
;;;272        while (len && ((ptrdiff_t)buf & 3)) {
000276  e009              B        |L1.652|
                  |L1.632|
;;;273            c = crc_table[0][(c ^ *buf++) & 0xff] ^ (c >> 8);
000278  f8135b01          LDRB     r5,[r3],#1
00027c  4045              EORS     r5,r5,r0
00027e  b2ed              UXTB     r5,r5
000280  4e5e              LDR      r6,|L1.1020|
000282  f8565025          LDR      r5,[r6,r5,LSL #2]
000286  ea852010          EOR      r0,r5,r0,LSR #8
;;;274            len--;
00028a  1e52              SUBS     r2,r2,#1
                  |L1.652|
00028c  b11a              CBZ      r2,|L1.662|
00028e  f0030503          AND      r5,r3,#3              ;272
000292  2d00              CMP      r5,#0                 ;272
000294  d1f0              BNE      |L1.632|
                  |L1.662|
;;;275        }
;;;276    
;;;277        buf4 = (const u4 FAR *)(const void FAR *)buf;
000296  4619              MOV      r1,r3
;;;278        while (len >= 32) {
000298  e0d1              B        |L1.1086|
                  |L1.666|
;;;279            DOLIT32;
00029a  c920              LDM      r1!,{r5}
00029c  4068              EORS     r0,r0,r5
00029e  b2c6              UXTB     r6,r0
0002a0  4d5b              LDR      r5,|L1.1040|
0002a2  f8555026          LDR      r5,[r5,r6,LSL #2]
0002a6  f3c02607          UBFX     r6,r0,#8,#8
0002aa  00b7              LSLS     r7,r6,#2
0002ac  4e59              LDR      r6,|L1.1044|
0002ae  59f6              LDR      r6,[r6,r7]
0002b0  4075              EORS     r5,r5,r6
0002b2  f3c04607          UBFX     r6,r0,#16,#8
0002b6  00b7              LSLS     r7,r6,#2
0002b8  4e57              LDR      r6,|L1.1048|
0002ba  59f6              LDR      r6,[r6,r7]
0002bc  4075              EORS     r5,r5,r6
0002be  0e06              LSRS     r6,r0,#24
0002c0  4f4e              LDR      r7,|L1.1020|
0002c2  f8576026          LDR      r6,[r7,r6,LSL #2]
0002c6  ea850006          EOR      r0,r5,r6
0002ca  c920              LDM      r1!,{r5}
0002cc  4068              EORS     r0,r0,r5
0002ce  b2c6              UXTB     r6,r0
0002d0  4d4f              LDR      r5,|L1.1040|
0002d2  f8555026          LDR      r5,[r5,r6,LSL #2]
0002d6  f3c02607          UBFX     r6,r0,#8,#8
0002da  00b7              LSLS     r7,r6,#2
0002dc  4e4d              LDR      r6,|L1.1044|
0002de  59f6              LDR      r6,[r6,r7]
0002e0  4075              EORS     r5,r5,r6
0002e2  f3c04607          UBFX     r6,r0,#16,#8
0002e6  00b7              LSLS     r7,r6,#2
0002e8  4e4b              LDR      r6,|L1.1048|
0002ea  59f6              LDR      r6,[r6,r7]
0002ec  4075              EORS     r5,r5,r6
0002ee  0e06              LSRS     r6,r0,#24
0002f0  4f42              LDR      r7,|L1.1020|
0002f2  f8576026          LDR      r6,[r7,r6,LSL #2]
0002f6  ea850006          EOR      r0,r5,r6
0002fa  c920              LDM      r1!,{r5}
0002fc  4068              EORS     r0,r0,r5
0002fe  b2c6              UXTB     r6,r0
000300  4d43              LDR      r5,|L1.1040|
000302  f8555026          LDR      r5,[r5,r6,LSL #2]
000306  f3c02607          UBFX     r6,r0,#8,#8
00030a  00b7              LSLS     r7,r6,#2
00030c  4e41              LDR      r6,|L1.1044|
00030e  59f6              LDR      r6,[r6,r7]
000310  4075              EORS     r5,r5,r6
000312  f3c04607          UBFX     r6,r0,#16,#8
000316  00b7              LSLS     r7,r6,#2
000318  4e3f              LDR      r6,|L1.1048|
00031a  59f6              LDR      r6,[r6,r7]
00031c  4075              EORS     r5,r5,r6
00031e  0e06              LSRS     r6,r0,#24
000320  4f36              LDR      r7,|L1.1020|
000322  f8576026          LDR      r6,[r7,r6,LSL #2]
000326  ea850006          EOR      r0,r5,r6
00032a  c920              LDM      r1!,{r5}
00032c  4068              EORS     r0,r0,r5
00032e  b2c6              UXTB     r6,r0
000330  4d37              LDR      r5,|L1.1040|
000332  f8555026          LDR      r5,[r5,r6,LSL #2]
000336  f3c02607          UBFX     r6,r0,#8,#8
00033a  00b7              LSLS     r7,r6,#2
00033c  4e35              LDR      r6,|L1.1044|
00033e  59f6              LDR      r6,[r6,r7]
000340  4075              EORS     r5,r5,r6
000342  f3c04607          UBFX     r6,r0,#16,#8
000346  00b7              LSLS     r7,r6,#2
000348  4e33              LDR      r6,|L1.1048|
00034a  59f6              LDR      r6,[r6,r7]
00034c  4075              EORS     r5,r5,r6
00034e  0e06              LSRS     r6,r0,#24
000350  4f2a              LDR      r7,|L1.1020|
000352  f8576026          LDR      r6,[r7,r6,LSL #2]
000356  ea850006          EOR      r0,r5,r6
00035a  c920              LDM      r1!,{r5}
00035c  4068              EORS     r0,r0,r5
00035e  b2c6              UXTB     r6,r0
000360  4d2b              LDR      r5,|L1.1040|
000362  f8555026          LDR      r5,[r5,r6,LSL #2]
000366  f3c02607          UBFX     r6,r0,#8,#8
00036a  00b7              LSLS     r7,r6,#2
00036c  4e29              LDR      r6,|L1.1044|
00036e  59f6              LDR      r6,[r6,r7]
000370  4075              EORS     r5,r5,r6
000372  f3c04607          UBFX     r6,r0,#16,#8
000376  00b7              LSLS     r7,r6,#2
000378  4e27              LDR      r6,|L1.1048|
00037a  59f6              LDR      r6,[r6,r7]
00037c  4075              EORS     r5,r5,r6
00037e  0e06              LSRS     r6,r0,#24
000380  4f1e              LDR      r7,|L1.1020|
000382  f8576026          LDR      r6,[r7,r6,LSL #2]
000386  ea850006          EOR      r0,r5,r6
00038a  c920              LDM      r1!,{r5}
00038c  4068              EORS     r0,r0,r5
00038e  b2c6              UXTB     r6,r0
000390  4d1f              LDR      r5,|L1.1040|
000392  f8555026          LDR      r5,[r5,r6,LSL #2]
000396  f3c02607          UBFX     r6,r0,#8,#8
00039a  00b7              LSLS     r7,r6,#2
00039c  4e1d              LDR      r6,|L1.1044|
00039e  59f6              LDR      r6,[r6,r7]
0003a0  4075              EORS     r5,r5,r6
0003a2  f3c04607          UBFX     r6,r0,#16,#8
0003a6  00b7              LSLS     r7,r6,#2
0003a8  4e1b              LDR      r6,|L1.1048|
0003aa  59f6              LDR      r6,[r6,r7]
0003ac  4075              EORS     r5,r5,r6
0003ae  0e06              LSRS     r6,r0,#24
0003b0  4f12              LDR      r7,|L1.1020|
0003b2  f8576026          LDR      r6,[r7,r6,LSL #2]
0003b6  ea850006          EOR      r0,r5,r6
0003ba  c920              LDM      r1!,{r5}
0003bc  4068              EORS     r0,r0,r5
0003be  b2c6              UXTB     r6,r0
0003c0  4d13              LDR      r5,|L1.1040|
0003c2  f8555026          LDR      r5,[r5,r6,LSL #2]
0003c6  f3c02607          UBFX     r6,r0,#8,#8
0003ca  00b7              LSLS     r7,r6,#2
0003cc  4e11              LDR      r6,|L1.1044|
0003ce  59f6              LDR      r6,[r6,r7]
0003d0  4075              EORS     r5,r5,r6
0003d2  f3c04607          UBFX     r6,r0,#16,#8
0003d6  00b7              LSLS     r7,r6,#2
0003d8  4e0f              LDR      r6,|L1.1048|
0003da  59f6              LDR      r6,[r6,r7]
0003dc  4075              EORS     r5,r5,r6
0003de  0e06              LSRS     r6,r0,#24
0003e0  4f06              LDR      r7,|L1.1020|
0003e2  f8576026          LDR      r6,[r7,r6,LSL #2]
0003e6  ea850006          EOR      r0,r5,r6
0003ea  c920              LDM      r1!,{r5}
0003ec  4068              EORS     r0,r0,r5
0003ee  b2c6              UXTB     r6,r0
0003f0  4d07              LDR      r5,|L1.1040|
0003f2  f8555026          LDR      r5,[r5,r6,LSL #2]
0003f6  f3c02607          UBFX     r6,r0,#8,#8
0003fa  e00f              B        |L1.1052|
                  |L1.1020|
                          DCD      crc_table
                  |L1.1024|
                          DCD      crc_table+0x1000
                  |L1.1028|
                          DCD      crc_table+0x1400
                  |L1.1032|
                          DCD      crc_table+0x1800
                  |L1.1036|
                          DCD      crc_table+0x1c00
                  |L1.1040|
                          DCD      crc_table+0xc00
                  |L1.1044|
                          DCD      crc_table+0x800
                  |L1.1048|
                          DCD      crc_table+0x400
                  |L1.1052|
00041c  00b7              LSLS     r7,r6,#2
00041e  4e5b              LDR      r6,|L1.1420|
000420  59f6              LDR      r6,[r6,r7]
000422  4075              EORS     r5,r5,r6
000424  f3c04607          UBFX     r6,r0,#16,#8
000428  00b7              LSLS     r7,r6,#2
00042a  4e59              LDR      r6,|L1.1424|
00042c  59f6              LDR      r6,[r6,r7]
00042e  4075              EORS     r5,r5,r6
000430  0e06              LSRS     r6,r0,#24
000432  4f58              LDR      r7,|L1.1428|
000434  f8576026          LDR      r6,[r7,r6,LSL #2]
000438  ea850006          EOR      r0,r5,r6
;;;280            len -= 32;
00043c  3a20              SUBS     r2,r2,#0x20
                  |L1.1086|
00043e  2a20              CMP      r2,#0x20              ;278
000440  f4bfaf2b          BCS      |L1.666|
;;;281        }
;;;282        while (len >= 4) {
000444  e018              B        |L1.1144|
                  |L1.1094|
;;;283            DOLIT4;
000446  c920              LDM      r1!,{r5}
000448  4068              EORS     r0,r0,r5
00044a  b2c6              UXTB     r6,r0
00044c  4d52              LDR      r5,|L1.1432|
00044e  f8555026          LDR      r5,[r5,r6,LSL #2]
000452  f3c02607          UBFX     r6,r0,#8,#8
000456  00b7              LSLS     r7,r6,#2
000458  4e4c              LDR      r6,|L1.1420|
00045a  59f6              LDR      r6,[r6,r7]
00045c  4075              EORS     r5,r5,r6
00045e  f3c04607          UBFX     r6,r0,#16,#8
000462  00b7              LSLS     r7,r6,#2
000464  4e4a              LDR      r6,|L1.1424|
000466  59f6              LDR      r6,[r6,r7]
000468  4075              EORS     r5,r5,r6
00046a  0e06              LSRS     r6,r0,#24
00046c  4f49              LDR      r7,|L1.1428|
00046e  f8576026          LDR      r6,[r7,r6,LSL #2]
000472  ea850006          EOR      r0,r5,r6
;;;284            len -= 4;
000476  1f12              SUBS     r2,r2,#4
                  |L1.1144|
000478  2a04              CMP      r2,#4                 ;282
00047a  d2e4              BCS      |L1.1094|
;;;285        }
;;;286        buf = (const unsigned char FAR *)buf4;
00047c  460b              MOV      r3,r1
;;;287    
;;;288        if (len) do {
00047e  b162              CBZ      r2,|L1.1178|
000480  bf00              NOP      
                  |L1.1154|
;;;289            c = crc_table[0][(c ^ *buf++) & 0xff] ^ (c >> 8);
000482  f8135b01          LDRB     r5,[r3],#1
000486  4045              EORS     r5,r5,r0
000488  b2ed              UXTB     r5,r5
00048a  4e42              LDR      r6,|L1.1428|
00048c  f8565025          LDR      r5,[r6,r5,LSL #2]
000490  ea852010          EOR      r0,r5,r0,LSR #8
;;;290        } while (--len);
000494  1e55              SUBS     r5,r2,#1
000496  002a              MOVS     r2,r5
000498  d1f3              BNE      |L1.1154|
                  |L1.1178|
;;;291        c = ~c;
00049a  43c0              MVNS     r0,r0
;;;292        return (unsigned long)c;
;;;293    }
00049c  bdf0              POP      {r4-r7,pc}
;;;294    
                          ENDP

                  crc32 PROC
;;;218    /* ========================================================================= */
;;;219    unsigned long ZEXPORT crc32(crc, buf, len)
00049e  b5f8              PUSH     {r3-r7,lr}
;;;220        unsigned long crc;
;;;221        const unsigned char FAR *buf;
;;;222        unsigned len;
;;;223    {
0004a0  4605              MOV      r5,r0
0004a2  460c              MOV      r4,r1
0004a4  4616              MOV      r6,r2
;;;224        if (buf == Z_NULL) return 0UL;
0004a6  b90c              CBNZ     r4,|L1.1196|
0004a8  2000              MOVS     r0,#0
                  |L1.1194|
;;;225    
;;;226    #ifdef DYNAMIC_CRC_TABLE
;;;227        if (crc_table_empty)
;;;228            make_crc_table();
;;;229    #endif /* DYNAMIC_CRC_TABLE */
;;;230    
;;;231    #ifdef BYFOUR
;;;232        if (sizeof(void *) == sizeof(ptrdiff_t)) {
;;;233            u4 endian;
;;;234    
;;;235            endian = 1;
;;;236            if (*((unsigned char *)(&endian)))
;;;237                return crc32_little(crc, buf, len);
;;;238            else
;;;239                return crc32_big(crc, buf, len);
;;;240        }
;;;241    #endif /* BYFOUR */
;;;242        crc = crc ^ 0xffffffffUL;
;;;243        while (len >= 8) {
;;;244            DO8;
;;;245            len -= 8;
;;;246        }
;;;247        if (len) do {
;;;248            DO1;
;;;249        } while (--len);
;;;250        return crc ^ 0xffffffffUL;
;;;251    }
0004aa  bdf8              POP      {r3-r7,pc}
                  |L1.1196|
0004ac  2001              MOVS     r0,#1                 ;235
0004ae  9000              STR      r0,[sp,#0]            ;235
0004b0  f89d0000          LDRB     r0,[sp,#0]            ;236
0004b4  b128              CBZ      r0,|L1.1218|
0004b6  4632              MOV      r2,r6                 ;237
0004b8  4621              MOV      r1,r4                 ;237
0004ba  4628              MOV      r0,r5                 ;237
0004bc  f7fffffe          BL       crc32_little
0004c0  e7f3              B        |L1.1194|
                  |L1.1218|
0004c2  4632              MOV      r2,r6                 ;239
0004c4  4621              MOV      r1,r4                 ;239
0004c6  4628              MOV      r0,r5                 ;239
0004c8  f7fffffe          BL       crc32_big
0004cc  e7ed              B        |L1.1194|
;;;252    
                          ENDP

                  gf2_matrix_times PROC
;;;341    /* ========================================================================= */
;;;342    local unsigned long gf2_matrix_times(mat, vec)
0004ce  4602              MOV      r2,r0
;;;343        unsigned long *mat;
;;;344        unsigned long vec;
;;;345    {
;;;346        unsigned long sum;
;;;347    
;;;348        sum = 0;
0004d0  2000              MOVS     r0,#0
;;;349        while (vec) {
0004d2  e006              B        |L1.1250|
                  |L1.1236|
;;;350            if (vec & 1)
0004d4  f0010301          AND      r3,r1,#1
0004d8  b10b              CBZ      r3,|L1.1246|
;;;351                sum ^= *mat;
0004da  6813              LDR      r3,[r2,#0]
0004dc  4058              EORS     r0,r0,r3
                  |L1.1246|
;;;352            vec >>= 1;
0004de  0849              LSRS     r1,r1,#1
;;;353            mat++;
0004e0  1d12              ADDS     r2,r2,#4
                  |L1.1250|
0004e2  2900              CMP      r1,#0                 ;349
0004e4  d1f6              BNE      |L1.1236|
;;;354        }
;;;355        return sum;
;;;356    }
0004e6  4770              BX       lr
;;;357    
                          ENDP

                  gf2_matrix_square PROC
;;;358    /* ========================================================================= */
;;;359    local void gf2_matrix_square(square, mat)
0004e8  b570              PUSH     {r4-r6,lr}
;;;360        unsigned long *square;
;;;361        unsigned long *mat;
;;;362    {
0004ea  4606              MOV      r6,r0
0004ec  460d              MOV      r5,r1
;;;363        int n;
;;;364    
;;;365        for (n = 0; n < GF2_DIM; n++)
0004ee  2400              MOVS     r4,#0
0004f0  e007              B        |L1.1282|
                  |L1.1266|
;;;366            square[n] = gf2_matrix_times(mat, mat[n]);
0004f2  f8551024          LDR      r1,[r5,r4,LSL #2]
0004f6  4628              MOV      r0,r5
0004f8  f7fffffe          BL       gf2_matrix_times
0004fc  f8460024          STR      r0,[r6,r4,LSL #2]
000500  1c64              ADDS     r4,r4,#1              ;365
                  |L1.1282|
000502  2c20              CMP      r4,#0x20              ;365
000504  dbf5              BLT      |L1.1266|
;;;367    }
000506  bd70              POP      {r4-r6,pc}
;;;368    
                          ENDP

                  crc32_combine PROC
;;;369    /* ========================================================================= */
;;;370    uLong ZEXPORT crc32_combine(crc1, crc2, len2)
000508  e92d41f0          PUSH     {r4-r8,lr}
;;;371        uLong crc1;
;;;372        uLong crc2;
;;;373        z_off_t len2;
;;;374    {
00050c  b0c0              SUB      sp,sp,#0x100
00050e  4606              MOV      r6,r0
000510  4688              MOV      r8,r1
000512  4614              MOV      r4,r2
;;;375        int n;
;;;376        unsigned long row;
;;;377        unsigned long even[GF2_DIM];    /* even-power-of-two zeros operator */
;;;378        unsigned long odd[GF2_DIM];     /* odd-power-of-two zeros operator */
;;;379    
;;;380        /* degenerate case */
;;;381        if (len2 == 0)
000514  b91c              CBNZ     r4,|L1.1310|
;;;382            return crc1;
000516  4630              MOV      r0,r6
                  |L1.1304|
;;;383    
;;;384        /* put operator for one zero bit in odd */
;;;385        odd[0] = 0xedb88320L;           /* CRC-32 polynomial */
;;;386        row = 1;
;;;387        for (n = 1; n < GF2_DIM; n++) {
;;;388            odd[n] = row;
;;;389            row <<= 1;
;;;390        }
;;;391    
;;;392        /* put operator for two zero bits in even */
;;;393        gf2_matrix_square(even, odd);
;;;394    
;;;395        /* put operator for four zero bits in odd */
;;;396        gf2_matrix_square(odd, even);
;;;397    
;;;398        /* apply len2 zeros to crc1 (first square will put the operator for one
;;;399           zero byte, eight zero bits, in even) */
;;;400        do {
;;;401            /* apply zeros operator for this bit of len2 */
;;;402            gf2_matrix_square(even, odd);
;;;403            if (len2 & 1)
;;;404                crc1 = gf2_matrix_times(even, crc1);
;;;405            len2 >>= 1;
;;;406    
;;;407            /* if no more bits set, then done */
;;;408            if (len2 == 0)
;;;409                break;
;;;410    
;;;411            /* another iteration of the loop with odd and even swapped */
;;;412            gf2_matrix_square(odd, even);
;;;413            if (len2 & 1)
;;;414                crc1 = gf2_matrix_times(odd, crc1);
;;;415            len2 >>= 1;
;;;416    
;;;417            /* if no more bits set, then done */
;;;418        } while (len2 != 0);
;;;419    
;;;420        /* return combined crc */
;;;421        crc1 ^= crc2;
;;;422        return crc1;
;;;423    }
000518  b040              ADD      sp,sp,#0x100
00051a  e8bd81f0          POP      {r4-r8,pc}
                  |L1.1310|
00051e  481f              LDR      r0,|L1.1436|
000520  9000              STR      r0,[sp,#0]            ;385
000522  2701              MOVS     r7,#1                 ;386
000524  2501              MOVS     r5,#1                 ;387
000526  e003              B        |L1.1328|
                  |L1.1320|
000528  f84d7025          STR      r7,[sp,r5,LSL #2]     ;388
00052c  007f              LSLS     r7,r7,#1              ;389
00052e  1c6d              ADDS     r5,r5,#1              ;387
                  |L1.1328|
000530  2d20              CMP      r5,#0x20              ;387
000532  dbf9              BLT      |L1.1320|
000534  4669              MOV      r1,sp                 ;393
000536  a820              ADD      r0,sp,#0x80           ;393
000538  f7fffffe          BL       gf2_matrix_square
00053c  a920              ADD      r1,sp,#0x80           ;396
00053e  4668              MOV      r0,sp                 ;396
000540  f7fffffe          BL       gf2_matrix_square
000544  bf00              NOP                            ;400
                  |L1.1350|
000546  4669              MOV      r1,sp                 ;402
000548  a820              ADD      r0,sp,#0x80           ;402
00054a  f7fffffe          BL       gf2_matrix_square
00054e  f0040001          AND      r0,r4,#1              ;403
000552  b120              CBZ      r0,|L1.1374|
000554  4631              MOV      r1,r6                 ;404
000556  a820              ADD      r0,sp,#0x80           ;404
000558  f7fffffe          BL       gf2_matrix_times
00055c  4606              MOV      r6,r0                 ;404
                  |L1.1374|
00055e  1064              ASRS     r4,r4,#1              ;405
000560  b904              CBNZ     r4,|L1.1380|
000562  e00e              B        |L1.1410|
                  |L1.1380|
000564  a920              ADD      r1,sp,#0x80           ;412
000566  4668              MOV      r0,sp                 ;412
000568  f7fffffe          BL       gf2_matrix_square
00056c  f0040001          AND      r0,r4,#1              ;413
000570  b120              CBZ      r0,|L1.1404|
000572  4631              MOV      r1,r6                 ;414
000574  4668              MOV      r0,sp                 ;414
000576  f7fffffe          BL       gf2_matrix_times
00057a  4606              MOV      r6,r0                 ;414
                  |L1.1404|
00057c  1064              ASRS     r4,r4,#1              ;415
00057e  2c00              CMP      r4,#0                 ;418
000580  d1e1              BNE      |L1.1350|
                  |L1.1410|
000582  bf00              NOP                            ;409
000584  ea860608          EOR      r6,r6,r8              ;421
000588  4630              MOV      r0,r6                 ;422
00058a  e7c5              B        |L1.1304|
                          ENDP

                  |L1.1420|
                          DCD      crc_table+0x800
                  |L1.1424|
                          DCD      crc_table+0x400
                  |L1.1428|
                          DCD      crc_table
                  |L1.1432|
                          DCD      crc_table+0xc00
                  |L1.1436|
                          DCD      0xedb88320

                          AREA ||.constdata||, DATA, READONLY, ALIGN=2

                  crc_table
                          DCD      0x00000000
                          DCD      0x77073096
                          DCD      0xee0e612c
                          DCD      0x990951ba
                          DCD      0x076dc419
                          DCD      0x706af48f
                          DCD      0xe963a535
                          DCD      0x9e6495a3
                          DCD      0x0edb8832
                          DCD      0x79dcb8a4
                          DCD      0xe0d5e91e
                          DCD      0x97d2d988
                          DCD      0x09b64c2b
                          DCD      0x7eb17cbd
                          DCD      0xe7b82d07
                          DCD      0x90bf1d91
                          DCD      0x1db71064
                          DCD      0x6ab020f2
                          DCD      0xf3b97148
                          DCD      0x84be41de
                          DCD      0x1adad47d
                          DCD      0x6ddde4eb
                          DCD      0xf4d4b551
                          DCD      0x83d385c7
                          DCD      0x136c9856
                          DCD      0x646ba8c0
                          DCD      0xfd62f97a
                          DCD      0x8a65c9ec
                          DCD      0x14015c4f
                          DCD      0x63066cd9
                          DCD      0xfa0f3d63
                          DCD      0x8d080df5
                          DCD      0x3b6e20c8
                          DCD      0x4c69105e
                          DCD      0xd56041e4
                          DCD      0xa2677172
                          DCD      0x3c03e4d1
                          DCD      0x4b04d447
                          DCD      0xd20d85fd
                          DCD      0xa50ab56b
                          DCD      0x35b5a8fa
                          DCD      0x42b2986c
                          DCD      0xdbbbc9d6
                          DCD      0xacbcf940
                          DCD      0x32d86ce3
                          DCD      0x45df5c75
                          DCD      0xdcd60dcf
                          DCD      0xabd13d59
                          DCD      0x26d930ac
                          DCD      0x51de003a
                          DCD      0xc8d75180
                          DCD      0xbfd06116
                          DCD      0x21b4f4b5
                          DCD      0x56b3c423
                          DCD      0xcfba9599
                          DCD      0xb8bda50f
                          DCD      0x2802b89e
                          DCD      0x5f058808
                          DCD      0xc60cd9b2
                          DCD      0xb10be924
                          DCD      0x2f6f7c87
                          DCD      0x58684c11
                          DCD      0xc1611dab
                          DCD      0xb6662d3d
                          DCD      0x76dc4190
                          DCD      0x01db7106
                          DCD      0x98d220bc
                          DCD      0xefd5102a
                          DCD      0x71b18589
                          DCD      0x06b6b51f
                          DCD      0x9fbfe4a5
                          DCD      0xe8b8d433
                          DCD      0x7807c9a2
                          DCD      0x0f00f934
                          DCD      0x9609a88e
                          DCD      0xe10e9818
                          DCD      0x7f6a0dbb
                          DCD      0x086d3d2d
                          DCD      0x91646c97
                          DCD      0xe6635c01
                          DCD      0x6b6b51f4
                          DCD      0x1c6c6162
                          DCD      0x856530d8
                          DCD      0xf262004e
                          DCD      0x6c0695ed
                          DCD      0x1b01a57b
                          DCD      0x8208f4c1
                          DCD      0xf50fc457
                          DCD      0x65b0d9c6
                          DCD      0x12b7e950
                          DCD      0x8bbeb8ea
                          DCD      0xfcb9887c
                          DCD      0x62dd1ddf
                          DCD      0x15da2d49
                          DCD      0x8cd37cf3
                          DCD      0xfbd44c65
                          DCD      0x4db26158
                          DCD      0x3ab551ce
                          DCD      0xa3bc0074
                          DCD      0xd4bb30e2
                          DCD      0x4adfa541
                          DCD      0x3dd895d7
                          DCD      0xa4d1c46d
                          DCD      0xd3d6f4fb
                          DCD      0x4369e96a
                          DCD      0x346ed9fc
                          DCD      0xad678846
                          DCD      0xda60b8d0
                          DCD      0x44042d73
                          DCD      0x33031de5
                          DCD      0xaa0a4c5f
                          DCD      0xdd0d7cc9
                          DCD      0x5005713c
                          DCD      0x270241aa
                          DCD      0xbe0b1010
                          DCD      0xc90c2086
                          DCD      0x5768b525
                          DCD      0x206f85b3
                          DCD      0xb966d409
                          DCD      0xce61e49f
                          DCD      0x5edef90e
                          DCD      0x29d9c998
                          DCD      0xb0d09822
                          DCD      0xc7d7a8b4
                          DCD      0x59b33d17
                          DCD      0x2eb40d81
                          DCD      0xb7bd5c3b
                          DCD      0xc0ba6cad
                          DCD      0xedb88320
                          DCD      0x9abfb3b6
                          DCD      0x03b6e20c
                          DCD      0x74b1d29a
                          DCD      0xead54739
                          DCD      0x9dd277af
                          DCD      0x04db2615
                          DCD      0x73dc1683
                          DCD      0xe3630b12
                          DCD      0x94643b84
                          DCD      0x0d6d6a3e
                          DCD      0x7a6a5aa8
                          DCD      0xe40ecf0b
                          DCD      0x9309ff9d
                          DCD      0x0a00ae27
                          DCD      0x7d079eb1
                          DCD      0xf00f9344
                          DCD      0x8708a3d2
                          DCD      0x1e01f268
                          DCD      0x6906c2fe
                          DCD      0xf762575d
                          DCD      0x806567cb
                          DCD      0x196c3671
                          DCD      0x6e6b06e7
                          DCD      0xfed41b76
                          DCD      0x89d32be0
                          DCD      0x10da7a5a
                          DCD      0x67dd4acc
                          DCD      0xf9b9df6f
                          DCD      0x8ebeeff9
                          DCD      0x17b7be43
                          DCD      0x60b08ed5
                          DCD      0xd6d6a3e8
                          DCD      0xa1d1937e
                          DCD      0x38d8c2c4
                          DCD      0x4fdff252
                          DCD      0xd1bb67f1
                          DCD      0xa6bc5767
                          DCD      0x3fb506dd
                          DCD      0x48b2364b
                          DCD      0xd80d2bda
                          DCD      0xaf0a1b4c
                          DCD      0x36034af6
                          DCD      0x41047a60
                          DCD      0xdf60efc3
                          DCD      0xa867df55
                          DCD      0x316e8eef
                          DCD      0x4669be79
                          DCD      0xcb61b38c
                          DCD      0xbc66831a
                          DCD      0x256fd2a0
                          DCD      0x5268e236
                          DCD      0xcc0c7795
                          DCD      0xbb0b4703
                          DCD      0x220216b9
                          DCD      0x5505262f
                          DCD      0xc5ba3bbe
                          DCD      0xb2bd0b28
                          DCD      0x2bb45a92
                          DCD      0x5cb36a04
                          DCD      0xc2d7ffa7
                          DCD      0xb5d0cf31
                          DCD      0x2cd99e8b
                          DCD      0x5bdeae1d
                          DCD      0x9b64c2b0
                          DCD      0xec63f226
                          DCD      0x756aa39c
                          DCD      0x026d930a
                          DCD      0x9c0906a9
                          DCD      0xeb0e363f
                          DCD      0x72076785
                          DCD      0x05005713
                          DCD      0x95bf4a82
                          DCD      0xe2b87a14
                          DCD      0x7bb12bae
                          DCD      0x0cb61b38
                          DCD      0x92d28e9b
                          DCD      0xe5d5be0d
                          DCD      0x7cdcefb7
                          DCD      0x0bdbdf21
                          DCD      0x86d3d2d4
                          DCD      0xf1d4e242
                          DCD      0x68ddb3f8
                          DCD      0x1fda836e
                          DCD      0x81be16cd
                          DCD      0xf6b9265b
                          DCD      0x6fb077e1
                          DCD      0x18b74777
                          DCD      0x88085ae6
                          DCD      0xff0f6a70
                          DCD      0x66063bca
                          DCD      0x11010b5c
                          DCD      0x8f659eff
                          DCD      0xf862ae69
                          DCD      0x616bffd3
                          DCD      0x166ccf45
                          DCD      0xa00ae278
                          DCD      0xd70dd2ee
                          DCD      0x4e048354
                          DCD      0x3903b3c2
                          DCD      0xa7672661
                          DCD      0xd06016f7
                          DCD      0x4969474d
                          DCD      0x3e6e77db
                          DCD      0xaed16a4a
                          DCD      0xd9d65adc
                          DCD      0x40df0b66
                          DCD      0x37d83bf0
                          DCD      0xa9bcae53
                          DCD      0xdebb9ec5
                          DCD      0x47b2cf7f
                          DCD      0x30b5ffe9
                          DCD      0xbdbdf21c
                          DCD      0xcabac28a
                          DCD      0x53b39330
                          DCD      0x24b4a3a6
                          DCD      0xbad03605
                          DCD      0xcdd70693
                          DCD      0x54de5729
                          DCD      0x23d967bf
                          DCD      0xb3667a2e
                          DCD      0xc4614ab8
                          DCD      0x5d681b02
                          DCD      0x2a6f2b94
                          DCD      0xb40bbe37
                          DCD      0xc30c8ea1
                          DCD      0x5a05df1b
                          DCD      0x2d02ef8d
                          DCD      0x00000000
                          DCD      0x191b3141
                          DCD      0x32366282
                          DCD      0x2b2d53c3
                          DCD      0x646cc504
                          DCD      0x7d77f445
                          DCD      0x565aa786
                          DCD      0x4f4196c7
                          DCD      0xc8d98a08
                          DCD      0xd1c2bb49
                          DCD      0xfaefe88a
                          DCD      0xe3f4d9cb
                          DCD      0xacb54f0c
                          DCD      0xb5ae7e4d
                          DCD      0x9e832d8e
                          DCD      0x87981ccf
                          DCD      0x4ac21251
                          DCD      0x53d92310
                          DCD      0x78f470d3
                          DCD      0x61ef4192
                          DCD      0x2eaed755
                          DCD      0x37b5e614
                          DCD      0x1c98b5d7
                          DCD      0x05838496
                          DCD      0x821b9859
                          DCD      0x9b00a918
                          DCD      0xb02dfadb
                          DCD      0xa936cb9a
                          DCD      0xe6775d5d
                          DCD      0xff6c6c1c
                          DCD      0xd4413fdf
                          DCD      0xcd5a0e9e
                          DCD      0x958424a2
                          DCD      0x8c9f15e3
                          DCD      0xa7b24620
                          DCD      0xbea97761
                          DCD      0xf1e8e1a6
                          DCD      0xe8f3d0e7
                          DCD      0xc3de8324
                          DCD      0xdac5b265
                          DCD      0x5d5daeaa
                          DCD      0x44469feb
                          DCD      0x6f6bcc28
                          DCD      0x7670fd69
                          DCD      0x39316bae
                          DCD      0x202a5aef
                          DCD      0x0b07092c
                          DCD      0x121c386d
                          DCD      0xdf4636f3
                          DCD      0xc65d07b2
                          DCD      0xed705471
                          DCD      0xf46b6530
                          DCD      0xbb2af3f7
                          DCD      0xa231c2b6
                          DCD      0x891c9175
                          DCD      0x9007a034
                          DCD      0x179fbcfb
                          DCD      0x0e848dba
                          DCD      0x25a9de79
                          DCD      0x3cb2ef38
                          DCD      0x73f379ff
                          DCD      0x6ae848be
                          DCD      0x41c51b7d
                          DCD      0x58de2a3c
                          DCD      0xf0794f05
                          DCD      0xe9627e44
                          DCD      0xc24f2d87
                          DCD      0xdb541cc6
                          DCD      0x94158a01
                          DCD      0x8d0ebb40
                          DCD      0xa623e883
                          DCD      0xbf38d9c2
                          DCD      0x38a0c50d
                          DCD      0x21bbf44c
                          DCD      0x0a96a78f
                          DCD      0x138d96ce
                          DCD      0x5ccc0009
                          DCD      0x45d73148
                          DCD      0x6efa628b
                          DCD      0x77e153ca
                          DCD      0xbabb5d54
                          DCD      0xa3a06c15
                          DCD      0x888d3fd6
                          DCD      0x91960e97
                          DCD      0xded79850
                          DCD      0xc7cca911
                          DCD      0xece1fad2
                          DCD      0xf5facb93
                          DCD      0x7262d75c
                          DCD      0x6b79e61d
                          DCD      0x4054b5de
                          DCD      0x594f849f
                          DCD      0x160e1258
                          DCD      0x0f152319
                          DCD      0x243870da
                          DCD      0x3d23419b
                          DCD      0x65fd6ba7
                          DCD      0x7ce65ae6
                          DCD      0x57cb0925
                          DCD      0x4ed03864
                          DCD      0x0191aea3
                          DCD      0x188a9fe2
                          DCD      0x33a7cc21
                          DCD      0x2abcfd60
                          DCD      0xad24e1af
                          DCD      0xb43fd0ee
                          DCD      0x9f12832d
                          DCD      0x8609b26c
                          DCD      0xc94824ab
                          DCD      0xd05315ea
                          DCD      0xfb7e4629
                          DCD      0xe2657768
                          DCD      0x2f3f79f6
                          DCD      0x362448b7
                          DCD      0x1d091b74
                          DCD      0x04122a35
                          DCD      0x4b53bcf2
                          DCD      0x52488db3
                          DCD      0x7965de70
                          DCD      0x607eef31
                          DCD      0xe7e6f3fe
                          DCD      0xfefdc2bf
                          DCD      0xd5d0917c
                          DCD      0xcccba03d
                          DCD      0x838a36fa
                          DCD      0x9a9107bb
                          DCD      0xb1bc5478
                          DCD      0xa8a76539
                          DCD      0x3b83984b
                          DCD      0x2298a90a
                          DCD      0x09b5fac9
                          DCD      0x10aecb88
                          DCD      0x5fef5d4f
                          DCD      0x46f46c0e
                          DCD      0x6dd93fcd
                          DCD      0x74c20e8c
                          DCD      0xf35a1243
                          DCD      0xea412302
                          DCD      0xc16c70c1
                          DCD      0xd8774180
                          DCD      0x9736d747
                          DCD      0x8e2de606
                          DCD      0xa500b5c5
                          DCD      0xbc1b8484
                          DCD      0x71418a1a
                          DCD      0x685abb5b
                          DCD      0x4377e898
                          DCD      0x5a6cd9d9
                          DCD      0x152d4f1e
                          DCD      0x0c367e5f
                          DCD      0x271b2d9c
                          DCD      0x3e001cdd
                          DCD      0xb9980012
                          DCD      0xa0833153
                          DCD      0x8bae6290
                          DCD      0x92b553d1
                          DCD      0xddf4c516
                          DCD      0xc4eff457
                          DCD      0xefc2a794
                          DCD      0xf6d996d5
                          DCD      0xae07bce9
                          DCD      0xb71c8da8
                          DCD      0x9c31de6b
                          DCD      0x852aef2a
                          DCD      0xca6b79ed
                          DCD      0xd37048ac
                          DCD      0xf85d1b6f
                          DCD      0xe1462a2e
                          DCD      0x66de36e1
                          DCD      0x7fc507a0
                          DCD      0x54e85463
                          DCD      0x4df36522
                          DCD      0x02b2f3e5
                          DCD      0x1ba9c2a4
                          DCD      0x30849167
                          DCD      0x299fa026
                          DCD      0xe4c5aeb8
                          DCD      0xfdde9ff9
                          DCD      0xd6f3cc3a
                          DCD      0xcfe8fd7b
                          DCD      0x80a96bbc
                          DCD      0x99b25afd
                          DCD      0xb29f093e
                          DCD      0xab84387f
                          DCD      0x2c1c24b0
                          DCD      0x350715f1
                          DCD      0x1e2a4632
                          DCD      0x07317773
                          DCD      0x4870e1b4
                          DCD      0x516bd0f5
                          DCD      0x7a468336
                          DCD      0x635db277
                          DCD      0xcbfad74e
                          DCD      0xd2e1e60f
                          DCD      0xf9ccb5cc
                          DCD      0xe0d7848d
                          DCD      0xaf96124a
                          DCD      0xb68d230b
                          DCD      0x9da070c8
                          DCD      0x84bb4189
                          DCD      0x03235d46
                          DCD      0x1a386c07
                          DCD      0x31153fc4
                          DCD      0x280e0e85
                          DCD      0x674f9842
                          DCD      0x7e54a903
                          DCD      0x5579fac0
                          DCD      0x4c62cb81
                          DCD      0x8138c51f
                          DCD      0x9823f45e
                          DCD      0xb30ea79d
                          DCD      0xaa1596dc
                          DCD      0xe554001b
                          DCD      0xfc4f315a
                          DCD      0xd7626299
                          DCD      0xce7953d8
                          DCD      0x49e14f17
                          DCD      0x50fa7e56
                          DCD      0x7bd72d95
                          DCD      0x62cc1cd4
                          DCD      0x2d8d8a13
                          DCD      0x3496bb52
                          DCD      0x1fbbe891
                          DCD      0x06a0d9d0
                          DCD      0x5e7ef3ec
                          DCD      0x4765c2ad
                          DCD      0x6c48916e
                          DCD      0x7553a02f
                          DCD      0x3a1236e8
                          DCD      0x230907a9
                          DCD      0x0824546a
                          DCD      0x113f652b
                          DCD      0x96a779e4
                          DCD      0x8fbc48a5
                          DCD      0xa4911b66
                          DCD      0xbd8a2a27
                          DCD      0xf2cbbce0
                          DCD      0xebd08da1
                          DCD      0xc0fdde62
                          DCD      0xd9e6ef23
                          DCD      0x14bce1bd
                          DCD      0x0da7d0fc
                          DCD      0x268a833f
                          DCD      0x3f91b27e
                          DCD      0x70d024b9
                          DCD      0x69cb15f8
                          DCD      0x42e6463b
                          DCD      0x5bfd777a
                          DCD      0xdc656bb5
                          DCD      0xc57e5af4
                          DCD      0xee530937
                          DCD      0xf7483876
                          DCD      0xb809aeb1
                          DCD      0xa1129ff0
                          DCD      0x8a3fcc33
                          DCD      0x9324fd72
                          DCD      0x00000000
                          DCD      0x01c26a37
                          DCD      0x0384d46e
                          DCD      0x0246be59
                          DCD      0x0709a8dc
                          DCD      0x06cbc2eb
                          DCD      0x048d7cb2
                          DCD      0x054f1685
                          DCD      0x0e1351b8
                          DCD      0x0fd13b8f
                          DCD      0x0d9785d6
                          DCD      0x0c55efe1
                          DCD      0x091af964
                          DCD      0x08d89353
                          DCD      0x0a9e2d0a
                          DCD      0x0b5c473d
                          DCD      0x1c26a370
                          DCD      0x1de4c947
                          DCD      0x1fa2771e
                          DCD      0x1e601d29
                          DCD      0x1b2f0bac
                          DCD      0x1aed619b
                          DCD      0x18abdfc2
                          DCD      0x1969b5f5
                          DCD      0x1235f2c8
                          DCD      0x13f798ff
                          DCD      0x11b126a6
                          DCD      0x10734c91
                          DCD      0x153c5a14
                          DCD      0x14fe3023
                          DCD      0x16b88e7a
                          DCD      0x177ae44d
                          DCD      0x384d46e0
                          DCD      0x398f2cd7
                          DCD      0x3bc9928e
                          DCD      0x3a0bf8b9
                          DCD      0x3f44ee3c
                          DCD      0x3e86840b
                          DCD      0x3cc03a52
                          DCD      0x3d025065
                          DCD      0x365e1758
                          DCD      0x379c7d6f
                          DCD      0x35dac336
                          DCD      0x3418a901
                          DCD      0x3157bf84
                          DCD      0x3095d5b3
                          DCD      0x32d36bea
                          DCD      0x331101dd
                          DCD      0x246be590
                          DCD      0x25a98fa7
                          DCD      0x27ef31fe
                          DCD      0x262d5bc9
                          DCD      0x23624d4c
                          DCD      0x22a0277b
                          DCD      0x20e69922
                          DCD      0x2124f315
                          DCD      0x2a78b428
                          DCD      0x2bbade1f
                          DCD      0x29fc6046
                          DCD      0x283e0a71
                          DCD      0x2d711cf4
                          DCD      0x2cb376c3
                          DCD      0x2ef5c89a
                          DCD      0x2f37a2ad
                          DCD      0x709a8dc0
                          DCD      0x7158e7f7
                          DCD      0x731e59ae
                          DCD      0x72dc3399
                          DCD      0x7793251c
                          DCD      0x76514f2b
                          DCD      0x7417f172
                          DCD      0x75d59b45
                          DCD      0x7e89dc78
                          DCD      0x7f4bb64f
                          DCD      0x7d0d0816
                          DCD      0x7ccf6221
                          DCD      0x798074a4
                          DCD      0x78421e93
                          DCD      0x7a04a0ca
                          DCD      0x7bc6cafd
                          DCD      0x6cbc2eb0
                          DCD      0x6d7e4487
                          DCD      0x6f38fade
                          DCD      0x6efa90e9
                          DCD      0x6bb5866c
                          DCD      0x6a77ec5b
                          DCD      0x68315202
                          DCD      0x69f33835
                          DCD      0x62af7f08
                          DCD      0x636d153f
                          DCD      0x612bab66
                          DCD      0x60e9c151
                          DCD      0x65a6d7d4
                          DCD      0x6464bde3
                          DCD      0x662203ba
                          DCD      0x67e0698d
                          DCD      0x48d7cb20
                          DCD      0x4915a117
                          DCD      0x4b531f4e
                          DCD      0x4a917579
                          DCD      0x4fde63fc
                          DCD      0x4e1c09cb
                          DCD      0x4c5ab792
                          DCD      0x4d98dda5
                          DCD      0x46c49a98
                          DCD      0x4706f0af
                          DCD      0x45404ef6
                          DCD      0x448224c1
                          DCD      0x41cd3244
                          DCD      0x400f5873
                          DCD      0x4249e62a
                          DCD      0x438b8c1d
                          DCD      0x54f16850
                          DCD      0x55330267
                          DCD      0x5775bc3e
                          DCD      0x56b7d609
                          DCD      0x53f8c08c
                          DCD      0x523aaabb
                          DCD      0x507c14e2
                          DCD      0x51be7ed5
                          DCD      0x5ae239e8
                          DCD      0x5b2053df
                          DCD      0x5966ed86
                          DCD      0x58a487b1
                          DCD      0x5deb9134
                          DCD      0x5c29fb03
                          DCD      0x5e6f455a
                          DCD      0x5fad2f6d
                          DCD      0xe1351b80
                          DCD      0xe0f771b7
                          DCD      0xe2b1cfee
                          DCD      0xe373a5d9
                          DCD      0xe63cb35c
                          DCD      0xe7fed96b
                          DCD      0xe5b86732
                          DCD      0xe47a0d05
                          DCD      0xef264a38
                          DCD      0xeee4200f
                          DCD      0xeca29e56
                          DCD      0xed60f461
                          DCD      0xe82fe2e4
                          DCD      0xe9ed88d3
                          DCD      0xebab368a
                          DCD      0xea695cbd
                          DCD      0xfd13b8f0
                          DCD      0xfcd1d2c7
                          DCD      0xfe976c9e
                          DCD      0xff5506a9
                          DCD      0xfa1a102c
                          DCD      0xfbd87a1b
                          DCD      0xf99ec442
                          DCD      0xf85cae75
                          DCD      0xf300e948
                          DCD      0xf2c2837f
                          DCD      0xf0843d26
                          DCD      0xf1465711
                          DCD      0xf4094194
                          DCD      0xf5cb2ba3
                          DCD      0xf78d95fa
                          DCD      0xf64fffcd
                          DCD      0xd9785d60
                          DCD      0xd8ba3757
                          DCD      0xdafc890e
                          DCD      0xdb3ee339
                          DCD      0xde71f5bc
                          DCD      0xdfb39f8b
                          DCD      0xddf521d2
                          DCD      0xdc374be5
                          DCD      0xd76b0cd8
                          DCD      0xd6a966ef
                          DCD      0xd4efd8b6
                          DCD      0xd52db281
                          DCD      0xd062a404
                          DCD      0xd1a0ce33
                          DCD      0xd3e6706a
                          DCD      0xd2241a5d
                          DCD      0xc55efe10
                          DCD      0xc49c9427
                          DCD      0xc6da2a7e
                          DCD      0xc7184049
                          DCD      0xc25756cc
                          DCD      0xc3953cfb
                          DCD      0xc1d382a2
                          DCD      0xc011e895
                          DCD      0xcb4dafa8
                          DCD      0xca8fc59f
                          DCD      0xc8c97bc6
                          DCD      0xc90b11f1
                          DCD      0xcc440774
                          DCD      0xcd866d43
                          DCD      0xcfc0d31a
                          DCD      0xce02b92d
                          DCD      0x91af9640
                          DCD      0x906dfc77
                          DCD      0x922b422e
                          DCD      0x93e92819
                          DCD      0x96a63e9c
                          DCD      0x976454ab
                          DCD      0x9522eaf2
                          DCD      0x94e080c5
                          DCD      0x9fbcc7f8
                          DCD      0x9e7eadcf
                          DCD      0x9c381396
                          DCD      0x9dfa79a1
                          DCD      0x98b56f24
                          DCD      0x99770513
                          DCD      0x9b31bb4a
                          DCD      0x9af3d17d
                          DCD      0x8d893530
                          DCD      0x8c4b5f07
                          DCD      0x8e0de15e
                          DCD      0x8fcf8b69
                          DCD      0x8a809dec
                          DCD      0x8b42f7db
                          DCD      0x89044982
                          DCD      0x88c623b5
                          DCD      0x839a6488
                          DCD      0x82580ebf
                          DCD      0x801eb0e6
                          DCD      0x81dcdad1
                          DCD      0x8493cc54
                          DCD      0x8551a663
                          DCD      0x8717183a
                          DCD      0x86d5720d
                          DCD      0xa9e2d0a0
                          DCD      0xa820ba97
                          DCD      0xaa6604ce
                          DCD      0xaba46ef9
                          DCD      0xaeeb787c
                          DCD      0xaf29124b
                          DCD      0xad6fac12
                          DCD      0xacadc625
                          DCD      0xa7f18118
                          DCD      0xa633eb2f
                          DCD      0xa4755576
                          DCD      0xa5b73f41
                          DCD      0xa0f829c4
                          DCD      0xa13a43f3
                          DCD      0xa37cfdaa
                          DCD      0xa2be979d
                          DCD      0xb5c473d0
                          DCD      0xb40619e7
                          DCD      0xb640a7be
                          DCD      0xb782cd89
                          DCD      0xb2cddb0c
                          DCD      0xb30fb13b
                          DCD      0xb1490f62
                          DCD      0xb08b6555
                          DCD      0xbbd72268
                          DCD      0xba15485f
                          DCD      0xb853f606
                          DCD      0xb9919c31
                          DCD      0xbcde8ab4
                          DCD      0xbd1ce083
                          DCD      0xbf5a5eda
                          DCD      0xbe9834ed
                          DCD      0x00000000
                          DCD      0xb8bc6765
                          DCD      0xaa09c88b
                          DCD      0x12b5afee
                          DCD      0x8f629757
                          DCD      0x37def032
                          DCD      0x256b5fdc
                          DCD      0x9dd738b9
                          DCD      0xc5b428ef
                          DCD      0x7d084f8a
                          DCD      0x6fbde064
                          DCD      0xd7018701
                          DCD      0x4ad6bfb8
                          DCD      0xf26ad8dd
                          DCD      0xe0df7733
                          DCD      0x58631056
                          DCD      0x5019579f
                          DCD      0xe8a530fa
                          DCD      0xfa109f14
                          DCD      0x42acf871
                          DCD      0xdf7bc0c8
                          DCD      0x67c7a7ad
                          DCD      0x75720843
                          DCD      0xcdce6f26
                          DCD      0x95ad7f70
                          DCD      0x2d111815
                          DCD      0x3fa4b7fb
                          DCD      0x8718d09e
                          DCD      0x1acfe827
                          DCD      0xa2738f42
                          DCD      0xb0c620ac
                          DCD      0x087a47c9
                          DCD      0xa032af3e
                          DCD      0x188ec85b
                          DCD      0x0a3b67b5
                          DCD      0xb28700d0
                          DCD      0x2f503869
                          DCD      0x97ec5f0c
                          DCD      0x8559f0e2
                          DCD      0x3de59787
                          DCD      0x658687d1
                          DCD      0xdd3ae0b4
                          DCD      0xcf8f4f5a
                          DCD      0x7733283f
                          DCD      0xeae41086
                          DCD      0x525877e3
                          DCD      0x40edd80d
                          DCD      0xf851bf68
                          DCD      0xf02bf8a1
                          DCD      0x48979fc4
                          DCD      0x5a22302a
                          DCD      0xe29e574f
                          DCD      0x7f496ff6
                          DCD      0xc7f50893
                          DCD      0xd540a77d
                          DCD      0x6dfcc018
                          DCD      0x359fd04e
                          DCD      0x8d23b72b
                          DCD      0x9f9618c5
                          DCD      0x272a7fa0
                          DCD      0xbafd4719
                          DCD      0x0241207c
                          DCD      0x10f48f92
                          DCD      0xa848e8f7
                          DCD      0x9b14583d
                          DCD      0x23a83f58
                          DCD      0x311d90b6
                          DCD      0x89a1f7d3
                          DCD      0x1476cf6a
                          DCD      0xaccaa80f
                          DCD      0xbe7f07e1
                          DCD      0x06c36084
                          DCD      0x5ea070d2
                          DCD      0xe61c17b7
                          DCD      0xf4a9b859
                          DCD      0x4c15df3c
                          DCD      0xd1c2e785
                          DCD      0x697e80e0
                          DCD      0x7bcb2f0e
                          DCD      0xc377486b
                          DCD      0xcb0d0fa2
                          DCD      0x73b168c7
                          DCD      0x6104c729
                          DCD      0xd9b8a04c
                          DCD      0x446f98f5
                          DCD      0xfcd3ff90
                          DCD      0xee66507e
                          DCD      0x56da371b
                          DCD      0x0eb9274d
                          DCD      0xb6054028
                          DCD      0xa4b0efc6
                          DCD      0x1c0c88a3
                          DCD      0x81dbb01a
                          DCD      0x3967d77f
                          DCD      0x2bd27891
                          DCD      0x936e1ff4
                          DCD      0x3b26f703
                          DCD      0x839a9066
                          DCD      0x912f3f88
                          DCD      0x299358ed
                          DCD      0xb4446054
                          DCD      0x0cf80731
                          DCD      0x1e4da8df
                          DCD      0xa6f1cfba
                          DCD      0xfe92dfec
                          DCD      0x462eb889
                          DCD      0x549b1767
                          DCD      0xec277002
                          DCD      0x71f048bb
                          DCD      0xc94c2fde
                          DCD      0xdbf98030
                          DCD      0x6345e755
                          DCD      0x6b3fa09c
                          DCD      0xd383c7f9
                          DCD      0xc1366817
                          DCD      0x798a0f72
                          DCD      0xe45d37cb
                          DCD      0x5ce150ae
                          DCD      0x4e54ff40
                          DCD      0xf6e89825
                          DCD      0xae8b8873
                          DCD      0x1637ef16
                          DCD      0x048240f8
                          DCD      0xbc3e279d
                          DCD      0x21e91f24
                          DCD      0x99557841
                          DCD      0x8be0d7af
                          DCD      0x335cb0ca
                          DCD      0xed59b63b
                          DCD      0x55e5d15e
                          DCD      0x47507eb0
                          DCD      0xffec19d5
                          DCD      0x623b216c
                          DCD      0xda874609
                          DCD      0xc832e9e7
                          DCD      0x708e8e82
                          DCD      0x28ed9ed4
                          DCD      0x9051f9b1
                          DCD      0x82e4565f
                          DCD      0x3a58313a
                          DCD      0xa78f0983
                          DCD      0x1f336ee6
                          DCD      0x0d86c108
                          DCD      0xb53aa66d
                          DCD      0xbd40e1a4
                          DCD      0x05fc86c1
                          DCD      0x1749292f
                          DCD      0xaff54e4a
                          DCD      0x322276f3
                          DCD      0x8a9e1196
                          DCD      0x982bbe78
                          DCD      0x2097d91d
                          DCD      0x78f4c94b
                          DCD      0xc048ae2e
                          DCD      0xd2fd01c0
                          DCD      0x6a4166a5
                          DCD      0xf7965e1c
                          DCD      0x4f2a3979
                          DCD      0x5d9f9697
                          DCD      0xe523f1f2
                          DCD      0x4d6b1905
                          DCD      0xf5d77e60
                          DCD      0xe762d18e
                          DCD      0x5fdeb6eb
                          DCD      0xc2098e52
                          DCD      0x7ab5e937
                          DCD      0x680046d9
                          DCD      0xd0bc21bc
                          DCD      0x88df31ea
                          DCD      0x3063568f
                          DCD      0x22d6f961
                          DCD      0x9a6a9e04
                          DCD      0x07bda6bd
                          DCD      0xbf01c1d8
                          DCD      0xadb46e36
                          DCD      0x15080953
                          DCD      0x1d724e9a
                          DCD      0xa5ce29ff
                          DCD      0xb77b8611
                          DCD      0x0fc7e174
                          DCD      0x9210d9cd
                          DCD      0x2aacbea8
                          DCD      0x38191146
                          DCD      0x80a57623
                          DCD      0xd8c66675
                          DCD      0x607a0110
                          DCD      0x72cfaefe
                          DCD      0xca73c99b
                          DCD      0x57a4f122
                          DCD      0xef189647
                          DCD      0xfdad39a9
                          DCD      0x45115ecc
                          DCD      0x764dee06
                          DCD      0xcef18963
                          DCD      0xdc44268d
                          DCD      0x64f841e8
                          DCD      0xf92f7951
                          DCD      0x41931e34
                          DCD      0x5326b1da
                          DCD      0xeb9ad6bf
                          DCD      0xb3f9c6e9
                          DCD      0x0b45a18c
                          DCD      0x19f00e62
                          DCD      0xa14c6907
                          DCD      0x3c9b51be
                          DCD      0x842736db
                          DCD      0x96929935
                          DCD      0x2e2efe50
                          DCD      0x2654b999
                          DCD      0x9ee8defc
                          DCD      0x8c5d7112
                          DCD      0x34e11677
                          DCD      0xa9362ece
                          DCD      0x118a49ab
                          DCD      0x033fe645
                          DCD      0xbb838120
                          DCD      0xe3e09176
                          DCD      0x5b5cf613
                          DCD      0x49e959fd
                          DCD      0xf1553e98
                          DCD      0x6c820621
                          DCD      0xd43e6144
                          DCD      0xc68bceaa
                          DCD      0x7e37a9cf
                          DCD      0xd67f4138
                          DCD      0x6ec3265d
                          DCD      0x7c7689b3
                          DCD      0xc4caeed6
                          DCD      0x591dd66f
                          DCD      0xe1a1b10a
                          DCD      0xf3141ee4
                          DCD      0x4ba87981
                          DCD      0x13cb69d7
                          DCD      0xab770eb2
                          DCD      0xb9c2a15c
                          DCD      0x017ec639
                          DCD      0x9ca9fe80
                          DCD      0x241599e5
                          DCD      0x36a0360b
                          DCD      0x8e1c516e
                          DCD      0x866616a7
                          DCD      0x3eda71c2
                          DCD      0x2c6fde2c
                          DCD      0x94d3b949
                          DCD      0x090481f0
                          DCD      0xb1b8e695
                          DCD      0xa30d497b
                          DCD      0x1bb12e1e
                          DCD      0x43d23e48
                          DCD      0xfb6e592d
                          DCD      0xe9dbf6c3
                          DCD      0x516791a6
                          DCD      0xccb0a91f
                          DCD      0x740cce7a
                          DCD      0x66b96194
                          DCD      0xde0506f1
                          DCD      0x00000000
                          DCD      0x96300777
                          DCD      0x2c610eee
                          DCD      0xba510999
                          DCD      0x19c46d07
                          DCD      0x8ff46a70
                          DCD      0x35a563e9
                          DCD      0xa395649e
                          DCD      0x3288db0e
                          DCD      0xa4b8dc79
                          DCD      0x1ee9d5e0
                          DCD      0x88d9d297
                          DCD      0x2b4cb609
                          DCD      0xbd7cb17e
                          DCD      0x072db8e7
                          DCD      0x911dbf90
                          DCD      0x6410b71d
                          DCD      0xf220b06a
                          DCD      0x4871b9f3
                          DCD      0xde41be84
                          DCD      0x7dd4da1a
                          DCD      0xebe4dd6d
                          DCD      0x51b5d4f4
                          DCD      0xc785d383
                          DCD      0x56986c13
                          DCD      0xc0a86b64
                          DCD      0x7af962fd
                          DCD      0xecc9658a
                          DCD      0x4f5c0114
                          DCD      0xd96c0663
                          DCD      0x633d0ffa
                          DCD      0xf50d088d
                          DCD      0xc8206e3b
                          DCD      0x5e10694c
                          DCD      0xe44160d5
                          DCD      0x727167a2
                          DCD      0xd1e4033c
                          DCD      0x47d4044b
                          DCD      0xfd850dd2
                          DCD      0x6bb50aa5
                          DCD      0xfaa8b535
                          DCD      0x6c98b242
                          DCD      0xd6c9bbdb
                          DCD      0x40f9bcac
                          DCD      0xe36cd832
                          DCD      0x755cdf45
                          DCD      0xcf0dd6dc
                          DCD      0x593dd1ab
                          DCD      0xac30d926
                          DCD      0x3a00de51
                          DCD      0x8051d7c8
                          DCD      0x1661d0bf
                          DCD      0xb5f4b421
                          DCD      0x23c4b356
                          DCD      0x9995bacf
                          DCD      0x0fa5bdb8
                          DCD      0x9eb80228
                          DCD      0x0888055f
                          DCD      0xb2d90cc6
                          DCD      0x24e90bb1
                          DCD      0x877c6f2f
                          DCD      0x114c6858
                          DCD      0xab1d61c1
                          DCD      0x3d2d66b6
                          DCD      0x9041dc76
                          DCD      0x0671db01
                          DCD      0xbc20d298
                          DCD      0x2a10d5ef
                          DCD      0x8985b171
                          DCD      0x1fb5b606
                          DCD      0xa5e4bf9f
                          DCD      0x33d4b8e8
                          DCD      0xa2c90778
                          DCD      0x34f9000f
                          DCD      0x8ea80996
                          DCD      0x18980ee1
                          DCD      0xbb0d6a7f
                          DCD      0x2d3d6d08
                          DCD      0x976c6491
                          DCD      0x015c63e6
                          DCD      0xf4516b6b
                          DCD      0x62616c1c
                          DCD      0xd8306585
                          DCD      0x4e0062f2
                          DCD      0xed95066c
                          DCD      0x7ba5011b
                          DCD      0xc1f40882
                          DCD      0x57c40ff5
                          DCD      0xc6d9b065
                          DCD      0x50e9b712
                          DCD      0xeab8be8b
                          DCD      0x7c88b9fc
                          DCD      0xdf1ddd62
                          DCD      0x492dda15
                          DCD      0xf37cd38c
                          DCD      0x654cd4fb
                          DCD      0x5861b24d
                          DCD      0xce51b53a
                          DCD      0x7400bca3
                          DCD      0xe230bbd4
                          DCD      0x41a5df4a
                          DCD      0xd795d83d
                          DCD      0x6dc4d1a4
                          DCD      0xfbf4d6d3
                          DCD      0x6ae96943
                          DCD      0xfcd96e34
                          DCD      0x468867ad
                          DCD      0xd0b860da
                          DCD      0x732d0444
                          DCD      0xe51d0333
                          DCD      0x5f4c0aaa
                          DCD      0xc97c0ddd
                          DCD      0x3c710550
                          DCD      0xaa410227
                          DCD      0x10100bbe
                          DCD      0x86200cc9
                          DCD      0x25b56857
                          DCD      0xb3856f20
                          DCD      0x09d466b9
                          DCD      0x9fe461ce
                          DCD      0x0ef9de5e
                          DCD      0x98c9d929
                          DCD      0x2298d0b0
                          DCD      0xb4a8d7c7
                          DCD      0x173db359
                          DCD      0x810db42e
                          DCD      0x3b5cbdb7
                          DCD      0xad6cbac0
                          DCD      0x2083b8ed
                          DCD      0xb6b3bf9a
                          DCD      0x0ce2b603
                          DCD      0x9ad2b174
                          DCD      0x3947d5ea
                          DCD      0xaf77d29d
                          DCD      0x1526db04
                          DCD      0x8316dc73
                          DCD      0x120b63e3
                          DCD      0x843b6494
                          DCD      0x3e6a6d0d
                          DCD      0xa85a6a7a
                          DCD      0x0bcf0ee4
                          DCD      0x9dff0993
                          DCD      0x27ae000a
                          DCD      0xb19e077d
                          DCD      0x44930ff0
                          DCD      0xd2a30887
                          DCD      0x68f2011e
                          DCD      0xfec20669
                          DCD      0x5d5762f7
                          DCD      0xcb676580
                          DCD      0x71366c19
                          DCD      0xe7066b6e
                          DCD      0x761bd4fe
                          DCD      0xe02bd389
                          DCD      0x5a7ada10
                          DCD      0xcc4add67
                          DCD      0x6fdfb9f9
                          DCD      0xf9efbe8e
                          DCD      0x43beb717
                          DCD      0xd58eb060
                          DCD      0xe8a3d6d6
                          DCD      0x7e93d1a1
                          DCD      0xc4c2d838
                          DCD      0x52f2df4f
                          DCD      0xf167bbd1
                          DCD      0x6757bca6
                          DCD      0xdd06b53f
                          DCD      0x4b36b248
                          DCD      0xda2b0dd8
                          DCD      0x4c1b0aaf
                          DCD      0xf64a0336
                          DCD      0x607a0441
                          DCD      0xc3ef60df
                          DCD      0x55df67a8
                          DCD      0xef8e6e31
                          DCD      0x79be6946
                          DCD      0x8cb361cb
                          DCD      0x1a8366bc
                          DCD      0xa0d26f25
                          DCD      0x36e26852
                          DCD      0x95770ccc
                          DCD      0x03470bbb
                          DCD      0xb9160222
                          DCD      0x2f260555
                          DCD      0xbe3bbac5
                          DCD      0x280bbdb2
                          DCD      0x925ab42b
                          DCD      0x046ab35c
                          DCD      0xa7ffd7c2
                          DCD      0x31cfd0b5
                          DCD      0x8b9ed92c
                          DCD      0x1daede5b
                          DCD      0xb0c2649b
                          DCD      0x26f263ec
                          DCD      0x9ca36a75
                          DCD      0x0a936d02
                          DCD      0xa906099c
                          DCD      0x3f360eeb
                          DCD      0x85670772
                          DCD      0x13570005
                          DCD      0x824abf95
                          DCD      0x147ab8e2
                          DCD      0xae2bb17b
                          DCD      0x381bb60c
                          DCD      0x9b8ed292
                          DCD      0x0dbed5e5
                          DCD      0xb7efdc7c
                          DCD      0x21dfdb0b
                          DCD      0xd4d2d386
                          DCD      0x42e2d4f1
                          DCD      0xf8b3dd68
                          DCD      0x6e83da1f
                          DCD      0xcd16be81
                          DCD      0x5b26b9f6
                          DCD      0xe177b06f
                          DCD      0x7747b718
                          DCD      0xe65a0888
                          DCD      0x706a0fff
                          DCD      0xca3b0666
                          DCD      0x5c0b0111
                          DCD      0xff9e658f
                          DCD      0x69ae62f8
                          DCD      0xd3ff6b61
                          DCD      0x45cf6c16
                          DCD      0x78e20aa0
                          DCD      0xeed20dd7
                          DCD      0x5483044e
                          DCD      0xc2b30339
                          DCD      0x612667a7
                          DCD      0xf71660d0
                          DCD      0x4d476949
                          DCD      0xdb776e3e
                          DCD      0x4a6ad1ae
                          DCD      0xdc5ad6d9
                          DCD      0x660bdf40
                          DCD      0xf03bd837
                          DCD      0x53aebca9
                          DCD      0xc59ebbde
                          DCD      0x7fcfb247
                          DCD      0xe9ffb530
                          DCD      0x1cf2bdbd
                          DCD      0x8ac2baca
                          DCD      0x3093b353
                          DCD      0xa6a3b424
                          DCD      0x0536d0ba
                          DCD      0x9306d7cd
                          DCD      0x2957de54
                          DCD      0xbf67d923
                          DCD      0x2e7a66b3
                          DCD      0xb84a61c4
                          DCD      0x021b685d
                          DCD      0x942b6f2a
                          DCD      0x37be0bb4
                          DCD      0xa18e0cc3
                          DCD      0x1bdf055a
                          DCD      0x8def022d
                          DCD      0x00000000
                          DCD      0x41311b19
                          DCD      0x82623632
                          DCD      0xc3532d2b
                          DCD      0x04c56c64
                          DCD      0x45f4777d
                          DCD      0x86a75a56
                          DCD      0xc796414f
                          DCD      0x088ad9c8
                          DCD      0x49bbc2d1
                          DCD      0x8ae8effa
                          DCD      0xcbd9f4e3
                          DCD      0x0c4fb5ac
                          DCD      0x4d7eaeb5
                          DCD      0x8e2d839e
                          DCD      0xcf1c9887
                          DCD      0x5112c24a
                          DCD      0x1023d953
                          DCD      0xd370f478
                          DCD      0x9241ef61
                          DCD      0x55d7ae2e
                          DCD      0x14e6b537
                          DCD      0xd7b5981c
                          DCD      0x96848305
                          DCD      0x59981b82
                          DCD      0x18a9009b
                          DCD      0xdbfa2db0
                          DCD      0x9acb36a9
                          DCD      0x5d5d77e6
                          DCD      0x1c6c6cff
                          DCD      0xdf3f41d4
                          DCD      0x9e0e5acd
                          DCD      0xa2248495
                          DCD      0xe3159f8c
                          DCD      0x2046b2a7
                          DCD      0x6177a9be
                          DCD      0xa6e1e8f1
                          DCD      0xe7d0f3e8
                          DCD      0x2483dec3
                          DCD      0x65b2c5da
                          DCD      0xaaae5d5d
                          DCD      0xeb9f4644
                          DCD      0x28cc6b6f
                          DCD      0x69fd7076
                          DCD      0xae6b3139
                          DCD      0xef5a2a20
                          DCD      0x2c09070b
                          DCD      0x6d381c12
                          DCD      0xf33646df
                          DCD      0xb2075dc6
                          DCD      0x715470ed
                          DCD      0x30656bf4
                          DCD      0xf7f32abb
                          DCD      0xb6c231a2
                          DCD      0x75911c89
                          DCD      0x34a00790
                          DCD      0xfbbc9f17
                          DCD      0xba8d840e
                          DCD      0x79dea925
                          DCD      0x38efb23c
                          DCD      0xff79f373
                          DCD      0xbe48e86a
                          DCD      0x7d1bc541
                          DCD      0x3c2ade58
                          DCD      0x054f79f0
                          DCD      0x447e62e9
                          DCD      0x872d4fc2
                          DCD      0xc61c54db
                          DCD      0x018a1594
                          DCD      0x40bb0e8d
                          DCD      0x83e823a6
                          DCD      0xc2d938bf
                          DCD      0x0dc5a038
                          DCD      0x4cf4bb21
                          DCD      0x8fa7960a
                          DCD      0xce968d13
                          DCD      0x0900cc5c
                          DCD      0x4831d745
                          DCD      0x8b62fa6e
                          DCD      0xca53e177
                          DCD      0x545dbbba
                          DCD      0x156ca0a3
                          DCD      0xd63f8d88
                          DCD      0x970e9691
                          DCD      0x5098d7de
                          DCD      0x11a9ccc7
                          DCD      0xd2fae1ec
                          DCD      0x93cbfaf5
                          DCD      0x5cd76272
                          DCD      0x1de6796b
                          DCD      0xdeb55440
                          DCD      0x9f844f59
                          DCD      0x58120e16
                          DCD      0x1923150f
                          DCD      0xda703824
                          DCD      0x9b41233d
                          DCD      0xa76bfd65
                          DCD      0xe65ae67c
                          DCD      0x2509cb57
                          DCD      0x6438d04e
                          DCD      0xa3ae9101
                          DCD      0xe29f8a18
                          DCD      0x21cca733
                          DCD      0x60fdbc2a
                          DCD      0xafe124ad
                          DCD      0xeed03fb4
                          DCD      0x2d83129f
                          DCD      0x6cb20986
                          DCD      0xab2448c9
                          DCD      0xea1553d0
                          DCD      0x29467efb
                          DCD      0x687765e2
                          DCD      0xf6793f2f
                          DCD      0xb7482436
                          DCD      0x741b091d
                          DCD      0x352a1204
                          DCD      0xf2bc534b
                          DCD      0xb38d4852
                          DCD      0x70de6579
                          DCD      0x31ef7e60
                          DCD      0xfef3e6e7
                          DCD      0xbfc2fdfe
                          DCD      0x7c91d0d5
                          DCD      0x3da0cbcc
                          DCD      0xfa368a83
                          DCD      0xbb07919a
                          DCD      0x7854bcb1
                          DCD      0x3965a7a8
                          DCD      0x4b98833b
                          DCD      0x0aa99822
                          DCD      0xc9fab509
                          DCD      0x88cbae10
                          DCD      0x4f5def5f
                          DCD      0x0e6cf446
                          DCD      0xcd3fd96d
                          DCD      0x8c0ec274
                          DCD      0x43125af3
                          DCD      0x022341ea
                          DCD      0xc1706cc1
                          DCD      0x804177d8
                          DCD      0x47d73697
                          DCD      0x06e62d8e
                          DCD      0xc5b500a5
                          DCD      0x84841bbc
                          DCD      0x1a8a4171
                          DCD      0x5bbb5a68
                          DCD      0x98e87743
                          DCD      0xd9d96c5a
                          DCD      0x1e4f2d15
                          DCD      0x5f7e360c
                          DCD      0x9c2d1b27
                          DCD      0xdd1c003e
                          DCD      0x120098b9
                          DCD      0x533183a0
                          DCD      0x9062ae8b
                          DCD      0xd153b592
                          DCD      0x16c5f4dd
                          DCD      0x57f4efc4
                          DCD      0x94a7c2ef
                          DCD      0xd596d9f6
                          DCD      0xe9bc07ae
                          DCD      0xa88d1cb7
                          DCD      0x6bde319c
                          DCD      0x2aef2a85
                          DCD      0xed796bca
                          DCD      0xac4870d3
                          DCD      0x6f1b5df8
                          DCD      0x2e2a46e1
                          DCD      0xe136de66
                          DCD      0xa007c57f
                          DCD      0x6354e854
                          DCD      0x2265f34d
                          DCD      0xe5f3b202
                          DCD      0xa4c2a91b
                          DCD      0x67918430
                          DCD      0x26a09f29
                          DCD      0xb8aec5e4
                          DCD      0xf99fdefd
                          DCD      0x3accf3d6
                          DCD      0x7bfde8cf
                          DCD      0xbc6ba980
                          DCD      0xfd5ab299
                          DCD      0x3e099fb2
                          DCD      0x7f3884ab
                          DCD      0xb0241c2c
                          DCD      0xf1150735
                          DCD      0x32462a1e
                          DCD      0x73773107
                          DCD      0xb4e17048
                          DCD      0xf5d06b51
                          DCD      0x3683467a
                          DCD      0x77b25d63
                          DCD      0x4ed7facb
                          DCD      0x0fe6e1d2
                          DCD      0xccb5ccf9
                          DCD      0x8d84d7e0
                          DCD      0x4a1296af
                          DCD      0x0b238db6
                          DCD      0xc870a09d
                          DCD      0x8941bb84
                          DCD      0x465d2303
                          DCD      0x076c381a
                          DCD      0xc43f1531
                          DCD      0x850e0e28
                          DCD      0x42984f67
                          DCD      0x03a9547e
                          DCD      0xc0fa7955
                          DCD      0x81cb624c
                          DCD      0x1fc53881
                          DCD      0x5ef42398
                          DCD      0x9da70eb3
                          DCD      0xdc9615aa
                          DCD      0x1b0054e5
                          DCD      0x5a314ffc
                          DCD      0x996262d7
                          DCD      0xd85379ce
                          DCD      0x174fe149
                          DCD      0x567efa50
                          DCD      0x952dd77b
                          DCD      0xd41ccc62
                          DCD      0x138a8d2d
                          DCD      0x52bb9634
                          DCD      0x91e8bb1f
                          DCD      0xd0d9a006
                          DCD      0xecf37e5e
                          DCD      0xadc26547
                          DCD      0x6e91486c
                          DCD      0x2fa05375
                          DCD      0xe836123a
                          DCD      0xa9070923
                          DCD      0x6a542408
                          DCD      0x2b653f11
                          DCD      0xe479a796
                          DCD      0xa548bc8f
                          DCD      0x661b91a4
                          DCD      0x272a8abd
                          DCD      0xe0bccbf2
                          DCD      0xa18dd0eb
                          DCD      0x62defdc0
                          DCD      0x23efe6d9
                          DCD      0xbde1bc14
                          DCD      0xfcd0a70d
                          DCD      0x3f838a26
                          DCD      0x7eb2913f
                          DCD      0xb924d070
                          DCD      0xf815cb69
                          DCD      0x3b46e642
                          DCD      0x7a77fd5b
                          DCD      0xb56b65dc
                          DCD      0xf45a7ec5
                          DCD      0x370953ee
                          DCD      0x763848f7
                          DCD      0xb1ae09b8
                          DCD      0xf09f12a1
                          DCD      0x33cc3f8a
                          DCD      0x72fd2493
                          DCD      0x00000000
                          DCD      0x376ac201
                          DCD      0x6ed48403
                          DCD      0x59be4602
                          DCD      0xdca80907
                          DCD      0xebc2cb06
                          DCD      0xb27c8d04
                          DCD      0x85164f05
                          DCD      0xb851130e
                          DCD      0x8f3bd10f
                          DCD      0xd685970d
                          DCD      0xe1ef550c
                          DCD      0x64f91a09
                          DCD      0x5393d808
                          DCD      0x0a2d9e0a
                          DCD      0x3d475c0b
                          DCD      0x70a3261c
                          DCD      0x47c9e41d
                          DCD      0x1e77a21f
                          DCD      0x291d601e
                          DCD      0xac0b2f1b
                          DCD      0x9b61ed1a
                          DCD      0xc2dfab18
                          DCD      0xf5b56919
                          DCD      0xc8f23512
                          DCD      0xff98f713
                          DCD      0xa626b111
                          DCD      0x914c7310
                          DCD      0x145a3c15
                          DCD      0x2330fe14
                          DCD      0x7a8eb816
                          DCD      0x4de47a17
                          DCD      0xe0464d38
                          DCD      0xd72c8f39
                          DCD      0x8e92c93b
                          DCD      0xb9f80b3a
                          DCD      0x3cee443f
                          DCD      0x0b84863e
                          DCD      0x523ac03c
                          DCD      0x6550023d
                          DCD      0x58175e36
                          DCD      0x6f7d9c37
                          DCD      0x36c3da35
                          DCD      0x01a91834
                          DCD      0x84bf5731
                          DCD      0xb3d59530
                          DCD      0xea6bd332
                          DCD      0xdd011133
                          DCD      0x90e56b24
                          DCD      0xa78fa925
                          DCD      0xfe31ef27
                          DCD      0xc95b2d26
                          DCD      0x4c4d6223
                          DCD      0x7b27a022
                          DCD      0x2299e620
                          DCD      0x15f32421
                          DCD      0x28b4782a
                          DCD      0x1fdeba2b
                          DCD      0x4660fc29
                          DCD      0x710a3e28
                          DCD      0xf41c712d
                          DCD      0xc376b32c
                          DCD      0x9ac8f52e
                          DCD      0xada2372f
                          DCD      0xc08d9a70
                          DCD      0xf7e75871
                          DCD      0xae591e73
                          DCD      0x9933dc72
                          DCD      0x1c259377
                          DCD      0x2b4f5176
                          DCD      0x72f11774
                          DCD      0x459bd575
                          DCD      0x78dc897e
                          DCD      0x4fb64b7f
                          DCD      0x16080d7d
                          DCD      0x2162cf7c
                          DCD      0xa4748079
                          DCD      0x931e4278
                          DCD      0xcaa0047a
                          DCD      0xfdcac67b
                          DCD      0xb02ebc6c
                          DCD      0x87447e6d
                          DCD      0xdefa386f
                          DCD      0xe990fa6e
                          DCD      0x6c86b56b
                          DCD      0x5bec776a
                          DCD      0x02523168
                          DCD      0x3538f369
                          DCD      0x087faf62
                          DCD      0x3f156d63
                          DCD      0x66ab2b61
                          DCD      0x51c1e960
                          DCD      0xd4d7a665
                          DCD      0xe3bd6464
                          DCD      0xba032266
                          DCD      0x8d69e067
                          DCD      0x20cbd748
                          DCD      0x17a11549
                          DCD      0x4e1f534b
                          DCD      0x7975914a
                          DCD      0xfc63de4f
                          DCD      0xcb091c4e
                          DCD      0x92b75a4c
                          DCD      0xa5dd984d
                          DCD      0x989ac446
                          DCD      0xaff00647
                          DCD      0xf64e4045
                          DCD      0xc1248244
                          DCD      0x4432cd41
                          DCD      0x73580f40
                          DCD      0x2ae64942
                          DCD      0x1d8c8b43
                          DCD      0x5068f154
                          DCD      0x67023355
                          DCD      0x3ebc7557
                          DCD      0x09d6b756
                          DCD      0x8cc0f853
                          DCD      0xbbaa3a52
                          DCD      0xe2147c50
                          DCD      0xd57ebe51
                          DCD      0xe839e25a
                          DCD      0xdf53205b
                          DCD      0x86ed6659
                          DCD      0xb187a458
                          DCD      0x3491eb5d
                          DCD      0x03fb295c
                          DCD      0x5a456f5e
                          DCD      0x6d2fad5f
                          DCD      0x801b35e1
                          DCD      0xb771f7e0
                          DCD      0xeecfb1e2
                          DCD      0xd9a573e3
                          DCD      0x5cb33ce6
                          DCD      0x6bd9fee7
                          DCD      0x3267b8e5
                          DCD      0x050d7ae4
                          DCD      0x384a26ef
                          DCD      0x0f20e4ee
                          DCD      0x569ea2ec
                          DCD      0x61f460ed
                          DCD      0xe4e22fe8
                          DCD      0xd388ede9
                          DCD      0x8a36abeb
                          DCD      0xbd5c69ea
                          DCD      0xf0b813fd
                          DCD      0xc7d2d1fc
                          DCD      0x9e6c97fe
                          DCD      0xa90655ff
                          DCD      0x2c101afa
                          DCD      0x1b7ad8fb
                          DCD      0x42c49ef9
                          DCD      0x75ae5cf8
                          DCD      0x48e900f3
                          DCD      0x7f83c2f2
                          DCD      0x263d84f0
                          DCD      0x115746f1
                          DCD      0x944109f4
                          DCD      0xa32bcbf5
                          DCD      0xfa958df7
                          DCD      0xcdff4ff6
                          DCD      0x605d78d9
                          DCD      0x5737bad8
                          DCD      0x0e89fcda
                          DCD      0x39e33edb
                          DCD      0xbcf571de
                          DCD      0x8b9fb3df
                          DCD      0xd221f5dd
                          DCD      0xe54b37dc
                          DCD      0xd80c6bd7
                          DCD      0xef66a9d6
                          DCD      0xb6d8efd4
                          DCD      0x81b22dd5
                          DCD      0x04a462d0
                          DCD      0x33cea0d1
                          DCD      0x6a70e6d3
                          DCD      0x5d1a24d2
                          DCD      0x10fe5ec5
                          DCD      0x27949cc4
                          DCD      0x7e2adac6
                          DCD      0x494018c7
                          DCD      0xcc5657c2
                          DCD      0xfb3c95c3
                          DCD      0xa282d3c1
                          DCD      0x95e811c0
                          DCD      0xa8af4dcb
                          DCD      0x9fc58fca
                          DCD      0xc67bc9c8
                          DCD      0xf1110bc9
                          DCD      0x740744cc
                          DCD      0x436d86cd
                          DCD      0x1ad3c0cf
                          DCD      0x2db902ce
                          DCD      0x4096af91
                          DCD      0x77fc6d90
                          DCD      0x2e422b92
                          DCD      0x1928e993
                          DCD      0x9c3ea696
                          DCD      0xab546497
                          DCD      0xf2ea2295
                          DCD      0xc580e094
                          DCD      0xf8c7bc9f
                          DCD      0xcfad7e9e
                          DCD      0x9613389c
                          DCD      0xa179fa9d
                          DCD      0x246fb598
                          DCD      0x13057799
                          DCD      0x4abb319b
                          DCD      0x7dd1f39a
                          DCD      0x3035898d
                          DCD      0x075f4b8c
                          DCD      0x5ee10d8e
                          DCD      0x698bcf8f
                          DCD      0xec9d808a
                          DCD      0xdbf7428b
                          DCD      0x82490489
                          DCD      0xb523c688
                          DCD      0x88649a83
                          DCD      0xbf0e5882
                          DCD      0xe6b01e80
                          DCD      0xd1dadc81
                          DCD      0x54cc9384
                          DCD      0x63a65185
                          DCD      0x3a181787
                          DCD      0x0d72d586
                          DCD      0xa0d0e2a9
                          DCD      0x97ba20a8
                          DCD      0xce0466aa
                          DCD      0xf96ea4ab
                          DCD      0x7c78ebae
                          DCD      0x4b1229af
                          DCD      0x12ac6fad
                          DCD      0x25c6adac
                          DCD      0x1881f1a7
                          DCD      0x2feb33a6
                          DCD      0x765575a4
                          DCD      0x413fb7a5
                          DCD      0xc429f8a0
                          DCD      0xf3433aa1
                          DCD      0xaafd7ca3
                          DCD      0x9d97bea2
                          DCD      0xd073c4b5
                          DCD      0xe71906b4
                          DCD      0xbea740b6
                          DCD      0x89cd82b7
                          DCD      0x0cdbcdb2
                          DCD      0x3bb10fb3
                          DCD      0x620f49b1
                          DCD      0x55658bb0
                          DCD      0x6822d7bb
                          DCD      0x5f4815ba
                          DCD      0x06f653b8
                          DCD      0x319c91b9
                          DCD      0xb48adebc
                          DCD      0x83e01cbd
                          DCD      0xda5e5abf
                          DCD      0xed3498be
                          DCD      0x00000000
                          DCD      0x6567bcb8
                          DCD      0x8bc809aa
                          DCD      0xeeafb512
                          DCD      0x5797628f
                          DCD      0x32f0de37
                          DCD      0xdc5f6b25
                          DCD      0xb938d79d
                          DCD      0xef28b4c5
                          DCD      0x8a4f087d
                          DCD      0x64e0bd6f
                          DCD      0x018701d7
                          DCD      0xb8bfd64a
                          DCD      0xddd86af2
                          DCD      0x3377dfe0
                          DCD      0x56106358
                          DCD      0x9f571950
                          DCD      0xfa30a5e8
                          DCD      0x149f10fa
                          DCD      0x71f8ac42
                          DCD      0xc8c07bdf
                          DCD      0xada7c767
                          DCD      0x43087275
                          DCD      0x266fcecd
                          DCD      0x707fad95
                          DCD      0x1518112d
                          DCD      0xfbb7a43f
                          DCD      0x9ed01887
                          DCD      0x27e8cf1a
                          DCD      0x428f73a2
                          DCD      0xac20c6b0
                          DCD      0xc9477a08
                          DCD      0x3eaf32a0
                          DCD      0x5bc88e18
                          DCD      0xb5673b0a
                          DCD      0xd00087b2
                          DCD      0x6938502f
                          DCD      0x0c5fec97
                          DCD      0xe2f05985
                          DCD      0x8797e53d
                          DCD      0xd1878665
                          DCD      0xb4e03add
                          DCD      0x5a4f8fcf
                          DCD      0x3f283377
                          DCD      0x8610e4ea
                          DCD      0xe3775852
                          DCD      0x0dd8ed40
                          DCD      0x68bf51f8
                          DCD      0xa1f82bf0
                          DCD      0xc49f9748
                          DCD      0x2a30225a
                          DCD      0x4f579ee2
                          DCD      0xf66f497f
                          DCD      0x9308f5c7
                          DCD      0x7da740d5
                          DCD      0x18c0fc6d
                          DCD      0x4ed09f35
                          DCD      0x2bb7238d
                          DCD      0xc518969f
                          DCD      0xa07f2a27
                          DCD      0x1947fdba
                          DCD      0x7c204102
                          DCD      0x928ff410
                          DCD      0xf7e848a8
                          DCD      0x3d58149b
                          DCD      0x583fa823
                          DCD      0xb6901d31
                          DCD      0xd3f7a189
                          DCD      0x6acf7614
                          DCD      0x0fa8caac
                          DCD      0xe1077fbe
                          DCD      0x8460c306
                          DCD      0xd270a05e
                          DCD      0xb7171ce6
                          DCD      0x59b8a9f4
                          DCD      0x3cdf154c
                          DCD      0x85e7c2d1
                          DCD      0xe0807e69
                          DCD      0x0e2fcb7b
                          DCD      0x6b4877c3
                          DCD      0xa20f0dcb
                          DCD      0xc768b173
                          DCD      0x29c70461
                          DCD      0x4ca0b8d9
                          DCD      0xf5986f44
                          DCD      0x90ffd3fc
                          DCD      0x7e5066ee
                          DCD      0x1b37da56
                          DCD      0x4d27b90e
                          DCD      0x284005b6
                          DCD      0xc6efb0a4
                          DCD      0xa3880c1c
                          DCD      0x1ab0db81
                          DCD      0x7fd76739
                          DCD      0x9178d22b
                          DCD      0xf41f6e93
                          DCD      0x03f7263b
                          DCD      0x66909a83
                          DCD      0x883f2f91
                          DCD      0xed589329
                          DCD      0x546044b4
                          DCD      0x3107f80c
                          DCD      0xdfa84d1e
                          DCD      0xbacff1a6
                          DCD      0xecdf92fe
                          DCD      0x89b82e46
                          DCD      0x67179b54
                          DCD      0x027027ec
                          DCD      0xbb48f071
                          DCD      0xde2f4cc9
                          DCD      0x3080f9db
                          DCD      0x55e74563
                          DCD      0x9ca03f6b
                          DCD      0xf9c783d3
                          DCD      0x176836c1
                          DCD      0x720f8a79
                          DCD      0xcb375de4
                          DCD      0xae50e15c
                          DCD      0x40ff544e
                          DCD      0x2598e8f6
                          DCD      0x73888bae
                          DCD      0x16ef3716
                          DCD      0xf8408204
                          DCD      0x9d273ebc
                          DCD      0x241fe921
                          DCD      0x41785599
                          DCD      0xafd7e08b
                          DCD      0xcab05c33
                          DCD      0x3bb659ed
                          DCD      0x5ed1e555
                          DCD      0xb07e5047
                          DCD      0xd519ecff
                          DCD      0x6c213b62
                          DCD      0x094687da
                          DCD      0xe7e932c8
                          DCD      0x828e8e70
                          DCD      0xd49eed28
                          DCD      0xb1f95190
                          DCD      0x5f56e482
                          DCD      0x3a31583a
                          DCD      0x83098fa7
                          DCD      0xe66e331f
                          DCD      0x08c1860d
                          DCD      0x6da63ab5
                          DCD      0xa4e140bd
                          DCD      0xc186fc05
                          DCD      0x2f294917
                          DCD      0x4a4ef5af
                          DCD      0xf3762232
                          DCD      0x96119e8a
                          DCD      0x78be2b98
                          DCD      0x1dd99720
                          DCD      0x4bc9f478
                          DCD      0x2eae48c0
                          DCD      0xc001fdd2
                          DCD      0xa566416a
                          DCD      0x1c5e96f7
                          DCD      0x79392a4f
                          DCD      0x97969f5d
                          DCD      0xf2f123e5
                          DCD      0x05196b4d
                          DCD      0x607ed7f5
                          DCD      0x8ed162e7
                          DCD      0xebb6de5f
                          DCD      0x528e09c2
                          DCD      0x37e9b57a
                          DCD      0xd9460068
                          DCD      0xbc21bcd0
                          DCD      0xea31df88
                          DCD      0x8f566330
                          DCD      0x61f9d622
                          DCD      0x049e6a9a
                          DCD      0xbda6bd07
                          DCD      0xd8c101bf
                          DCD      0x366eb4ad
                          DCD      0x53090815
                          DCD      0x9a4e721d
                          DCD      0xff29cea5
                          DCD      0x11867bb7
                          DCD      0x74e1c70f
                          DCD      0xcdd91092
                          DCD      0xa8beac2a
                          DCD      0x46111938
                          DCD      0x2376a580
                          DCD      0x7566c6d8
                          DCD      0x10017a60
                          DCD      0xfeaecf72
                          DCD      0x9bc973ca
                          DCD      0x22f1a457
                          DCD      0x479618ef
                          DCD      0xa939adfd
                          DCD      0xcc5e1145
                          DCD      0x06ee4d76
                          DCD      0x6389f1ce
                          DCD      0x8d2644dc
                          DCD      0xe841f864
                          DCD      0x51792ff9
                          DCD      0x341e9341
                          DCD      0xdab12653
                          DCD      0xbfd69aeb
                          DCD      0xe9c6f9b3
                          DCD      0x8ca1450b
                          DCD      0x620ef019
                          DCD      0x07694ca1
                          DCD      0xbe519b3c
                          DCD      0xdb362784
                          DCD      0x35999296
                          DCD      0x50fe2e2e
                          DCD      0x99b95426
                          DCD      0xfcdee89e
                          DCD      0x12715d8c
                          DCD      0x7716e134
                          DCD      0xce2e36a9
                          DCD      0xab498a11
                          DCD      0x45e63f03
                          DCD      0x208183bb
                          DCD      0x7691e0e3
                          DCD      0x13f65c5b
                          DCD      0xfd59e949
                          DCD      0x983e55f1
                          DCD      0x2106826c
                          DCD      0x44613ed4
                          DCD      0xaace8bc6
                          DCD      0xcfa9377e
                          DCD      0x38417fd6
                          DCD      0x5d26c36e
                          DCD      0xb389767c
                          DCD      0xd6eecac4
                          DCD      0x6fd61d59
                          DCD      0x0ab1a1e1
                          DCD      0xe41e14f3
                          DCD      0x8179a84b
                          DCD      0xd769cb13
                          DCD      0xb20e77ab
                          DCD      0x5ca1c2b9
                          DCD      0x39c67e01
                          DCD      0x80fea99c
                          DCD      0xe5991524
                          DCD      0x0b36a036
                          DCD      0x6e511c8e
                          DCD      0xa7166686
                          DCD      0xc271da3e
                          DCD      0x2cde6f2c
                          DCD      0x49b9d394
                          DCD      0xf0810409
                          DCD      0x95e6b8b1
                          DCD      0x7b490da3
                          DCD      0x1e2eb11b
                          DCD      0x483ed243
                          DCD      0x2d596efb
                          DCD      0xc3f6dbe9
                          DCD      0xa6916751
                          DCD      0x1fa9b0cc
                          DCD      0x7ace0c74
                          DCD      0x9461b966
                          DCD      0xf10605de
