; generated by Component: ARM Compiler 5.05 update 2 (build 169) Tool: ArmCC [4d0f38]
; commandline ArmCC [--list --debug -c --asm --interleave -o.\obj\infback.o --asm_dir=.\list\ --list_dir=.\list\ --depend=.\obj\infback.d --cpu=Cortex-M3 --apcs=interwork -O0 --diag_suppress=9931 -I.\FWlib\inc -I.\user -I.\CM3 -I.\MALLOC -I.\TFT -I.\EMWIN\EMWIN_INC -I.\EMWIN\DEMO -I.\PNG -I.\FATFS -I.\SDIO -I.\USB\inc -I.\USBCFG\inc -IE:\material\GUI\9.STM32ᆦᡌ-emwin+fatfs+usb+memdev\RTE -Id:\Keil_v5\ARM\PACK\Keil\STM32F1xx_DFP\1.1.0\Device\Include -Id:\Keil_v5\ARM\CMSIS\Include -D__UVISION_VERSION=515 -DSTM32F10X_HD -DUSE_STDPERIPH_DRIVER -DSTM32F10X_HD -DUSE_STM3210B_EVAL --omf_browse=.\obj\infback.crf PNG\infback.c]
                          THUMB

                          AREA ||.text||, CODE, READONLY, ALIGN=2

                  inflateBackInit_ PROC
;;;27      */
;;;28     int ZEXPORT inflateBackInit_(strm, windowBits, window, version, stream_size)
000000  e92d47f0          PUSH     {r4-r10,lr}
;;;29     z_streamp strm;
;;;30     int windowBits;
;;;31     unsigned char FAR *window;
;;;32     const char *version;
;;;33     int stream_size;
;;;34     {
000004  4604              MOV      r4,r0
000006  460e              MOV      r6,r1
000008  4617              MOV      r7,r2
00000a  4698              MOV      r8,r3
00000c  f8dd9020          LDR      r9,[sp,#0x20]
;;;35         struct inflate_state FAR *state;
;;;36     
;;;37         if (version == Z_NULL || version[0] != ZLIB_VERSION[0] ||
000010  f1b80f00          CMP      r8,#0
000014  d008              BEQ      |L1.40|
000016  f8980000          LDRB     r0,[r8,#0]
00001a  a1f9              ADR      r1,|L1.1024|
00001c  7809              LDRB     r1,[r1,#0]
00001e  4288              CMP      r0,r1
000020  d102              BNE      |L1.40|
;;;38             stream_size != (int)(sizeof(z_stream)))
000022  f1b90f38          CMP      r9,#0x38
000026  d003              BEQ      |L1.48|
                  |L1.40|
;;;39             return Z_VERSION_ERROR;
000028  f06f0005          MVN      r0,#5
                  |L1.44|
;;;40         if (strm == Z_NULL || window == Z_NULL ||
;;;41             windowBits < 8 || windowBits > 15)
;;;42             return Z_STREAM_ERROR;
;;;43         strm->msg = Z_NULL;                 /* in case we return an error */
;;;44         if (strm->zalloc == (alloc_func)0) {
;;;45             strm->zalloc = zcalloc;
;;;46             strm->opaque = (voidpf)0;
;;;47         }
;;;48         if (strm->zfree == (free_func)0) strm->zfree = zcfree;
;;;49         state = (struct inflate_state FAR *)ZALLOC(strm, 1,
;;;50                                                    sizeof(struct inflate_state));
;;;51         if (state == Z_NULL) return Z_MEM_ERROR;
;;;52         Tracev((stderr, "inflate: allocated\n"));
;;;53         strm->state = (struct internal_state FAR *)state;
;;;54         state->dmax = 32768U;
;;;55         state->wbits = windowBits;
;;;56         state->wsize = 1U << windowBits;
;;;57         state->window = window;
;;;58         state->write = 0;
;;;59         state->whave = 0;
;;;60         return Z_OK;
;;;61     }
00002c  e8bd87f0          POP      {r4-r10,pc}
                  |L1.48|
000030  b124              CBZ      r4,|L1.60|
000032  b11f              CBZ      r7,|L1.60|
000034  2e08              CMP      r6,#8                 ;41
000036  db01              BLT      |L1.60|
000038  2e0f              CMP      r6,#0xf               ;41
00003a  dd02              BLE      |L1.66|
                  |L1.60|
00003c  f06f0001          MVN      r0,#1                 ;42
000040  e7f4              B        |L1.44|
                  |L1.66|
000042  2000              MOVS     r0,#0                 ;43
000044  61a0              STR      r0,[r4,#0x18]         ;43
000046  6a20              LDR      r0,[r4,#0x20]         ;44
000048  b918              CBNZ     r0,|L1.82|
00004a  48ef              LDR      r0,|L1.1032|
00004c  6220              STR      r0,[r4,#0x20]         ;45
00004e  2000              MOVS     r0,#0                 ;46
000050  62a0              STR      r0,[r4,#0x28]         ;46
                  |L1.82|
000052  6a60              LDR      r0,[r4,#0x24]         ;48
000054  b908              CBNZ     r0,|L1.90|
000056  48ed              LDR      r0,|L1.1036|
000058  6260              STR      r0,[r4,#0x24]         ;48
                  |L1.90|
00005a  f2425230          MOV      r2,#0x2530            ;49
00005e  2101              MOVS     r1,#1                 ;49
000060  6a23              LDR      r3,[r4,#0x20]         ;49
000062  6aa0              LDR      r0,[r4,#0x28]         ;49
000064  4798              BLX      r3                    ;49
000066  4605              MOV      r5,r0                 ;49
000068  b915              CBNZ     r5,|L1.112|
00006a  f06f0003          MVN      r0,#3                 ;51
00006e  e7dd              B        |L1.44|
                  |L1.112|
000070  61e5              STR      r5,[r4,#0x1c]         ;53
000072  f44f4000          MOV      r0,#0x8000            ;54
000076  6168              STR      r0,[r5,#0x14]         ;54
000078  626e              STR      r6,[r5,#0x24]         ;55
00007a  2001              MOVS     r0,#1                 ;56
00007c  40b0              LSLS     r0,r0,r6              ;56
00007e  62a8              STR      r0,[r5,#0x28]         ;56
000080  636f              STR      r7,[r5,#0x34]         ;57
000082  2000              MOVS     r0,#0                 ;58
000084  6328              STR      r0,[r5,#0x30]         ;58
000086  62e8              STR      r0,[r5,#0x2c]         ;59
000088  bf00              NOP                            ;60
00008a  e7cf              B        |L1.44|
;;;62     
                          ENDP

                  fixedtables PROC
;;;72      */
;;;73     local void fixedtables(state)
00008c  49e0              LDR      r1,|L1.1040|
;;;74     struct inflate_state FAR *state;
;;;75     {
;;;76     #ifdef BUILDFIXED
;;;77         static int virgin = 1;
;;;78         static code *lenfix, *distfix;
;;;79         static code fixed[544];
;;;80     
;;;81         /* build fixed huffman tables if first call (may not be thread safe) */
;;;82         if (virgin) {
;;;83             unsigned sym, bits;
;;;84             static code *next;
;;;85     
;;;86             /* literal/length table */
;;;87             sym = 0;
;;;88             while (sym < 144) state->lens[sym++] = 8;
;;;89             while (sym < 256) state->lens[sym++] = 9;
;;;90             while (sym < 280) state->lens[sym++] = 7;
;;;91             while (sym < 288) state->lens[sym++] = 8;
;;;92             next = fixed;
;;;93             lenfix = next;
;;;94             bits = 9;
;;;95             inflate_table(LENS, state->lens, 288, &(next), &(bits), state->work);
;;;96     
;;;97             /* distance table */
;;;98             sym = 0;
;;;99             while (sym < 32) state->lens[sym++] = 5;
;;;100            distfix = next;
;;;101            bits = 5;
;;;102            inflate_table(DISTS, state->lens, 32, &(next), &(bits), state->work);
;;;103    
;;;104            /* do this just once */
;;;105            virgin = 0;
;;;106        }
;;;107    #else /* !BUILDFIXED */
;;;108    #   include "inffixed.h"
;;;1          /* inffixed.h -- table for decoding fixed codes
;;;2           * Generated automatically by makefixed().
;;;3           */
;;;4      
;;;5          /* WARNING: this file should *not* be used by applications. It
;;;6             is part of the implementation of the compression library and
;;;7             is subject to change. Applications should only use zlib.h.
;;;8           */
;;;9      
;;;10         static const code lenfix[512] = {
;;;11             {96,7,0},{0,8,80},{0,8,16},{20,8,115},{18,7,31},{0,8,112},{0,8,48},
;;;12             {0,9,192},{16,7,10},{0,8,96},{0,8,32},{0,9,160},{0,8,0},{0,8,128},
;;;13             {0,8,64},{0,9,224},{16,7,6},{0,8,88},{0,8,24},{0,9,144},{19,7,59},
;;;14             {0,8,120},{0,8,56},{0,9,208},{17,7,17},{0,8,104},{0,8,40},{0,9,176},
;;;15             {0,8,8},{0,8,136},{0,8,72},{0,9,240},{16,7,4},{0,8,84},{0,8,20},
;;;16             {21,8,227},{19,7,43},{0,8,116},{0,8,52},{0,9,200},{17,7,13},{0,8,100},
;;;17             {0,8,36},{0,9,168},{0,8,4},{0,8,132},{0,8,68},{0,9,232},{16,7,8},
;;;18             {0,8,92},{0,8,28},{0,9,152},{20,7,83},{0,8,124},{0,8,60},{0,9,216},
;;;19             {18,7,23},{0,8,108},{0,8,44},{0,9,184},{0,8,12},{0,8,140},{0,8,76},
;;;20             {0,9,248},{16,7,3},{0,8,82},{0,8,18},{21,8,163},{19,7,35},{0,8,114},
;;;21             {0,8,50},{0,9,196},{17,7,11},{0,8,98},{0,8,34},{0,9,164},{0,8,2},
;;;22             {0,8,130},{0,8,66},{0,9,228},{16,7,7},{0,8,90},{0,8,26},{0,9,148},
;;;23             {20,7,67},{0,8,122},{0,8,58},{0,9,212},{18,7,19},{0,8,106},{0,8,42},
;;;24             {0,9,180},{0,8,10},{0,8,138},{0,8,74},{0,9,244},{16,7,5},{0,8,86},
;;;25             {0,8,22},{64,8,0},{19,7,51},{0,8,118},{0,8,54},{0,9,204},{17,7,15},
;;;26             {0,8,102},{0,8,38},{0,9,172},{0,8,6},{0,8,134},{0,8,70},{0,9,236},
;;;27             {16,7,9},{0,8,94},{0,8,30},{0,9,156},{20,7,99},{0,8,126},{0,8,62},
;;;28             {0,9,220},{18,7,27},{0,8,110},{0,8,46},{0,9,188},{0,8,14},{0,8,142},
;;;29             {0,8,78},{0,9,252},{96,7,0},{0,8,81},{0,8,17},{21,8,131},{18,7,31},
;;;30             {0,8,113},{0,8,49},{0,9,194},{16,7,10},{0,8,97},{0,8,33},{0,9,162},
;;;31             {0,8,1},{0,8,129},{0,8,65},{0,9,226},{16,7,6},{0,8,89},{0,8,25},
;;;32             {0,9,146},{19,7,59},{0,8,121},{0,8,57},{0,9,210},{17,7,17},{0,8,105},
;;;33             {0,8,41},{0,9,178},{0,8,9},{0,8,137},{0,8,73},{0,9,242},{16,7,4},
;;;34             {0,8,85},{0,8,21},{16,8,258},{19,7,43},{0,8,117},{0,8,53},{0,9,202},
;;;35             {17,7,13},{0,8,101},{0,8,37},{0,9,170},{0,8,5},{0,8,133},{0,8,69},
;;;36             {0,9,234},{16,7,8},{0,8,93},{0,8,29},{0,9,154},{20,7,83},{0,8,125},
;;;37             {0,8,61},{0,9,218},{18,7,23},{0,8,109},{0,8,45},{0,9,186},{0,8,13},
;;;38             {0,8,141},{0,8,77},{0,9,250},{16,7,3},{0,8,83},{0,8,19},{21,8,195},
;;;39             {19,7,35},{0,8,115},{0,8,51},{0,9,198},{17,7,11},{0,8,99},{0,8,35},
;;;40             {0,9,166},{0,8,3},{0,8,131},{0,8,67},{0,9,230},{16,7,7},{0,8,91},
;;;41             {0,8,27},{0,9,150},{20,7,67},{0,8,123},{0,8,59},{0,9,214},{18,7,19},
;;;42             {0,8,107},{0,8,43},{0,9,182},{0,8,11},{0,8,139},{0,8,75},{0,9,246},
;;;43             {16,7,5},{0,8,87},{0,8,23},{64,8,0},{19,7,51},{0,8,119},{0,8,55},
;;;44             {0,9,206},{17,7,15},{0,8,103},{0,8,39},{0,9,174},{0,8,7},{0,8,135},
;;;45             {0,8,71},{0,9,238},{16,7,9},{0,8,95},{0,8,31},{0,9,158},{20,7,99},
;;;46             {0,8,127},{0,8,63},{0,9,222},{18,7,27},{0,8,111},{0,8,47},{0,9,190},
;;;47             {0,8,15},{0,8,143},{0,8,79},{0,9,254},{96,7,0},{0,8,80},{0,8,16},
;;;48             {20,8,115},{18,7,31},{0,8,112},{0,8,48},{0,9,193},{16,7,10},{0,8,96},
;;;49             {0,8,32},{0,9,161},{0,8,0},{0,8,128},{0,8,64},{0,9,225},{16,7,6},
;;;50             {0,8,88},{0,8,24},{0,9,145},{19,7,59},{0,8,120},{0,8,56},{0,9,209},
;;;51             {17,7,17},{0,8,104},{0,8,40},{0,9,177},{0,8,8},{0,8,136},{0,8,72},
;;;52             {0,9,241},{16,7,4},{0,8,84},{0,8,20},{21,8,227},{19,7,43},{0,8,116},
;;;53             {0,8,52},{0,9,201},{17,7,13},{0,8,100},{0,8,36},{0,9,169},{0,8,4},
;;;54             {0,8,132},{0,8,68},{0,9,233},{16,7,8},{0,8,92},{0,8,28},{0,9,153},
;;;55             {20,7,83},{0,8,124},{0,8,60},{0,9,217},{18,7,23},{0,8,108},{0,8,44},
;;;56             {0,9,185},{0,8,12},{0,8,140},{0,8,76},{0,9,249},{16,7,3},{0,8,82},
;;;57             {0,8,18},{21,8,163},{19,7,35},{0,8,114},{0,8,50},{0,9,197},{17,7,11},
;;;58             {0,8,98},{0,8,34},{0,9,165},{0,8,2},{0,8,130},{0,8,66},{0,9,229},
;;;59             {16,7,7},{0,8,90},{0,8,26},{0,9,149},{20,7,67},{0,8,122},{0,8,58},
;;;60             {0,9,213},{18,7,19},{0,8,106},{0,8,42},{0,9,181},{0,8,10},{0,8,138},
;;;61             {0,8,74},{0,9,245},{16,7,5},{0,8,86},{0,8,22},{64,8,0},{19,7,51},
;;;62             {0,8,118},{0,8,54},{0,9,205},{17,7,15},{0,8,102},{0,8,38},{0,9,173},
;;;63             {0,8,6},{0,8,134},{0,8,70},{0,9,237},{16,7,9},{0,8,94},{0,8,30},
;;;64             {0,9,157},{20,7,99},{0,8,126},{0,8,62},{0,9,221},{18,7,27},{0,8,110},
;;;65             {0,8,46},{0,9,189},{0,8,14},{0,8,142},{0,8,78},{0,9,253},{96,7,0},
;;;66             {0,8,81},{0,8,17},{21,8,131},{18,7,31},{0,8,113},{0,8,49},{0,9,195},
;;;67             {16,7,10},{0,8,97},{0,8,33},{0,9,163},{0,8,1},{0,8,129},{0,8,65},
;;;68             {0,9,227},{16,7,6},{0,8,89},{0,8,25},{0,9,147},{19,7,59},{0,8,121},
;;;69             {0,8,57},{0,9,211},{17,7,17},{0,8,105},{0,8,41},{0,9,179},{0,8,9},
;;;70             {0,8,137},{0,8,73},{0,9,243},{16,7,4},{0,8,85},{0,8,21},{16,8,258},
;;;71             {19,7,43},{0,8,117},{0,8,53},{0,9,203},{17,7,13},{0,8,101},{0,8,37},
;;;72             {0,9,171},{0,8,5},{0,8,133},{0,8,69},{0,9,235},{16,7,8},{0,8,93},
;;;73             {0,8,29},{0,9,155},{20,7,83},{0,8,125},{0,8,61},{0,9,219},{18,7,23},
;;;74             {0,8,109},{0,8,45},{0,9,187},{0,8,13},{0,8,141},{0,8,77},{0,9,251},
;;;75             {16,7,3},{0,8,83},{0,8,19},{21,8,195},{19,7,35},{0,8,115},{0,8,51},
;;;76             {0,9,199},{17,7,11},{0,8,99},{0,8,35},{0,9,167},{0,8,3},{0,8,131},
;;;77             {0,8,67},{0,9,231},{16,7,7},{0,8,91},{0,8,27},{0,9,151},{20,7,67},
;;;78             {0,8,123},{0,8,59},{0,9,215},{18,7,19},{0,8,107},{0,8,43},{0,9,183},
;;;79             {0,8,11},{0,8,139},{0,8,75},{0,9,247},{16,7,5},{0,8,87},{0,8,23},
;;;80             {64,8,0},{19,7,51},{0,8,119},{0,8,55},{0,9,207},{17,7,15},{0,8,103},
;;;81             {0,8,39},{0,9,175},{0,8,7},{0,8,135},{0,8,71},{0,9,239},{16,7,9},
;;;82             {0,8,95},{0,8,31},{0,9,159},{20,7,99},{0,8,127},{0,8,63},{0,9,223},
;;;83             {18,7,27},{0,8,111},{0,8,47},{0,9,191},{0,8,15},{0,8,143},{0,8,79},
;;;84             {0,9,255}
;;;85         };
;;;86     
;;;87         static const code distfix[32] = {
;;;88             {16,5,1},{23,5,257},{19,5,17},{27,5,4097},{17,5,5},{25,5,1025},
;;;89             {21,5,65},{29,5,16385},{16,5,3},{24,5,513},{20,5,33},{28,5,8193},
;;;90             {18,5,9},{26,5,2049},{22,5,129},{64,5,0},{16,5,2},{23,5,385},
;;;91             {19,5,25},{27,5,6145},{17,5,7},{25,5,1537},{21,5,97},{29,5,24577},
;;;92             {16,5,4},{24,5,769},{20,5,49},{28,5,12289},{18,5,13},{26,5,3073},
;;;93             {22,5,193},{64,5,0}
;;;94         };
;;;109    #endif /* BUILDFIXED */
;;;110        state->lencode = lenfix;
00008e  64c1              STR      r1,[r0,#0x4c]
;;;111        state->lenbits = 9;
000090  2109              MOVS     r1,#9
000092  6541              STR      r1,[r0,#0x54]
;;;112        state->distcode = distfix;
000094  49df              LDR      r1,|L1.1044|
000096  6501              STR      r1,[r0,#0x50]
;;;113        state->distbits = 5;
000098  2105              MOVS     r1,#5
00009a  6581              STR      r1,[r0,#0x58]
;;;114    }
00009c  4770              BX       lr
;;;115    
                          ENDP

                  inflateBack PROC
;;;240     */
;;;241    int ZEXPORT inflateBack(strm, in, in_desc, out, out_desc)
00009e  e92d4fff          PUSH     {r0-r11,lr}
;;;242    z_streamp strm;
;;;243    in_func in;
;;;244    void FAR *in_desc;
;;;245    out_func out;
;;;246    void FAR *out_desc;
;;;247    {
0000a2  b089              SUB      sp,sp,#0x24
0000a4  4680              MOV      r8,r0
0000a6  468a              MOV      r10,r1
;;;248        struct inflate_state FAR *state;
;;;249        unsigned char FAR *next;    /* next input */
;;;250        unsigned char FAR *put;     /* next output */
;;;251        unsigned have, left;        /* available input and output */
;;;252        unsigned long hold;         /* bit buffer */
;;;253        unsigned bits;              /* bits in bit buffer */
;;;254        unsigned copy;              /* number of stored or match bytes to copy */
;;;255        unsigned char FAR *from;    /* where to copy match bytes from */
;;;256        code this;                  /* current decoding table entry */
;;;257        code last;                  /* parent table entry */
;;;258        unsigned len;               /* length to copy for repeats, bits to drop */
;;;259        int ret;                    /* return code */
;;;260        static const unsigned short order[19] = /* permutation of code lengths */
;;;261            {16, 17, 18, 0, 8, 7, 9, 6, 10, 5, 11, 4, 12, 3, 13, 2, 14, 1, 15};
;;;262    
;;;263        /* Check that the strm exists and that the state was initialized */
;;;264        if (strm == Z_NULL || strm->state == Z_NULL)
0000a8  f1b80f00          CMP      r8,#0
0000ac  d002              BEQ      |L1.180|
0000ae  f8d8001c          LDR      r0,[r8,#0x1c]
0000b2  b920              CBNZ     r0,|L1.190|
                  |L1.180|
;;;265            return Z_STREAM_ERROR;
0000b4  f06f0001          MVN      r0,#1
                  |L1.184|
;;;266        state = (struct inflate_state FAR *)strm->state;
;;;267    
;;;268        /* Reset the state */
;;;269        strm->msg = Z_NULL;
;;;270        state->mode = TYPE;
;;;271        state->last = 0;
;;;272        state->whave = 0;
;;;273        next = strm->next_in;
;;;274        have = next != Z_NULL ? strm->avail_in : 0;
;;;275        hold = 0;
;;;276        bits = 0;
;;;277        put = state->window;
;;;278        left = state->wsize;
;;;279    
;;;280        /* Inflate until end of block marked as last */
;;;281        for (;;)
;;;282            switch (state->mode) {
;;;283            case TYPE:
;;;284                /* determine and dispatch block type */
;;;285                if (state->last) {
;;;286                    BYTEBITS();
;;;287                    state->mode = DONE;
;;;288                    break;
;;;289                }
;;;290                NEEDBITS(3);
;;;291                state->last = BITS(1);
;;;292                DROPBITS(1);
;;;293                switch (BITS(2)) {
;;;294                case 0:                             /* stored block */
;;;295                    Tracev((stderr, "inflate:     stored block%s\n",
;;;296                            state->last ? " (last)" : ""));
;;;297                    state->mode = STORED;
;;;298                    break;
;;;299                case 1:                             /* fixed block */
;;;300                    fixedtables(state);
;;;301                    Tracev((stderr, "inflate:     fixed codes block%s\n",
;;;302                            state->last ? " (last)" : ""));
;;;303                    state->mode = LEN;              /* decode codes */
;;;304                    break;
;;;305                case 2:                             /* dynamic block */
;;;306                    Tracev((stderr, "inflate:     dynamic codes block%s\n",
;;;307                            state->last ? " (last)" : ""));
;;;308                    state->mode = TABLE;
;;;309                    break;
;;;310                case 3:
;;;311                    strm->msg = (char *)"invalid block type";
;;;312                    state->mode = BAD;
;;;313                }
;;;314                DROPBITS(2);
;;;315                break;
;;;316    
;;;317            case STORED:
;;;318                /* get and verify stored block length */
;;;319                BYTEBITS();                         /* go to byte boundary */
;;;320                NEEDBITS(32);
;;;321                if ((hold & 0xffff) != ((hold >> 16) ^ 0xffff)) {
;;;322                    strm->msg = (char *)"invalid stored block lengths";
;;;323                    state->mode = BAD;
;;;324                    break;
;;;325                }
;;;326                state->length = (unsigned)hold & 0xffff;
;;;327                Tracev((stderr, "inflate:       stored length %u\n",
;;;328                        state->length));
;;;329                INITBITS();
;;;330    
;;;331                /* copy stored block from input to output */
;;;332                while (state->length != 0) {
;;;333                    copy = state->length;
;;;334                    PULL();
;;;335                    ROOM();
;;;336                    if (copy > have) copy = have;
;;;337                    if (copy > left) copy = left;
;;;338                    zmemcpy(put, next, copy);
;;;339                    have -= copy;
;;;340                    next += copy;
;;;341                    left -= copy;
;;;342                    put += copy;
;;;343                    state->length -= copy;
;;;344                }
;;;345                Tracev((stderr, "inflate:       stored end\n"));
;;;346                state->mode = TYPE;
;;;347                break;
;;;348    
;;;349            case TABLE:
;;;350                /* get dynamic table entries descriptor */
;;;351                NEEDBITS(14);
;;;352                state->nlen = BITS(5) + 257;
;;;353                DROPBITS(5);
;;;354                state->ndist = BITS(5) + 1;
;;;355                DROPBITS(5);
;;;356                state->ncode = BITS(4) + 4;
;;;357                DROPBITS(4);
;;;358    #ifndef PKZIP_BUG_WORKAROUND
;;;359                if (state->nlen > 286 || state->ndist > 30) {
;;;360                    strm->msg = (char *)"too many length or distance symbols";
;;;361                    state->mode = BAD;
;;;362                    break;
;;;363                }
;;;364    #endif
;;;365                Tracev((stderr, "inflate:       table sizes ok\n"));
;;;366    
;;;367                /* get code length code lengths (not a typo) */
;;;368                state->have = 0;
;;;369                while (state->have < state->ncode) {
;;;370                    NEEDBITS(3);
;;;371                    state->lens[order[state->have++]] = (unsigned short)BITS(3);
;;;372                    DROPBITS(3);
;;;373                }
;;;374                while (state->have < 19)
;;;375                    state->lens[order[state->have++]] = 0;
;;;376                state->next = state->codes;
;;;377                state->lencode = (code const FAR *)(state->next);
;;;378                state->lenbits = 7;
;;;379                ret = inflate_table(CODES, state->lens, 19, &(state->next),
;;;380                                    &(state->lenbits), state->work);
;;;381                if (ret) {
;;;382                    strm->msg = (char *)"invalid code lengths set";
;;;383                    state->mode = BAD;
;;;384                    break;
;;;385                }
;;;386                Tracev((stderr, "inflate:       code lengths ok\n"));
;;;387    
;;;388                /* get length and distance code code lengths */
;;;389                state->have = 0;
;;;390                while (state->have < state->nlen + state->ndist) {
;;;391                    for (;;) {
;;;392                        this = state->lencode[BITS(state->lenbits)];
;;;393                        if ((unsigned)(this.bits) <= bits) break;
;;;394                        PULLBYTE();
;;;395                    }
;;;396                    if (this.val < 16) {
;;;397                        NEEDBITS(this.bits);
;;;398                        DROPBITS(this.bits);
;;;399                        state->lens[state->have++] = this.val;
;;;400                    }
;;;401                    else {
;;;402                        if (this.val == 16) {
;;;403                            NEEDBITS(this.bits + 2);
;;;404                            DROPBITS(this.bits);
;;;405                            if (state->have == 0) {
;;;406                                strm->msg = (char *)"invalid bit length repeat";
;;;407                                state->mode = BAD;
;;;408                                break;
;;;409                            }
;;;410                            len = (unsigned)(state->lens[state->have - 1]);
;;;411                            copy = 3 + BITS(2);
;;;412                            DROPBITS(2);
;;;413                        }
;;;414                        else if (this.val == 17) {
;;;415                            NEEDBITS(this.bits + 3);
;;;416                            DROPBITS(this.bits);
;;;417                            len = 0;
;;;418                            copy = 3 + BITS(3);
;;;419                            DROPBITS(3);
;;;420                        }
;;;421                        else {
;;;422                            NEEDBITS(this.bits + 7);
;;;423                            DROPBITS(this.bits);
;;;424                            len = 0;
;;;425                            copy = 11 + BITS(7);
;;;426                            DROPBITS(7);
;;;427                        }
;;;428                        if (state->have + copy > state->nlen + state->ndist) {
;;;429                            strm->msg = (char *)"invalid bit length repeat";
;;;430                            state->mode = BAD;
;;;431                            break;
;;;432                        }
;;;433                        while (copy--)
;;;434                            state->lens[state->have++] = (unsigned short)len;
;;;435                    }
;;;436                }
;;;437    
;;;438                /* handle error breaks in while */
;;;439                if (state->mode == BAD) break;
;;;440    
;;;441                /* build code tables */
;;;442                state->next = state->codes;
;;;443                state->lencode = (code const FAR *)(state->next);
;;;444                state->lenbits = 9;
;;;445                ret = inflate_table(LENS, state->lens, state->nlen, &(state->next),
;;;446                                    &(state->lenbits), state->work);
;;;447                if (ret) {
;;;448                    strm->msg = (char *)"invalid literal/lengths set";
;;;449                    state->mode = BAD;
;;;450                    break;
;;;451                }
;;;452                state->distcode = (code const FAR *)(state->next);
;;;453                state->distbits = 6;
;;;454                ret = inflate_table(DISTS, state->lens + state->nlen, state->ndist,
;;;455                                &(state->next), &(state->distbits), state->work);
;;;456                if (ret) {
;;;457                    strm->msg = (char *)"invalid distances set";
;;;458                    state->mode = BAD;
;;;459                    break;
;;;460                }
;;;461                Tracev((stderr, "inflate:       codes ok\n"));
;;;462                state->mode = LEN;
;;;463    
;;;464            case LEN:
;;;465                /* use inflate_fast() if we have enough input and output */
;;;466                if (have >= 6 && left >= 258) {
;;;467                    RESTORE();
;;;468                    if (state->whave < state->wsize)
;;;469                        state->whave = state->wsize - left;
;;;470                    inflate_fast(strm, state->wsize);
;;;471                    LOAD();
;;;472                    break;
;;;473                }
;;;474    
;;;475                /* get a literal, length, or end-of-block code */
;;;476                for (;;) {
;;;477                    this = state->lencode[BITS(state->lenbits)];
;;;478                    if ((unsigned)(this.bits) <= bits) break;
;;;479                    PULLBYTE();
;;;480                }
;;;481                if (this.op && (this.op & 0xf0) == 0) {
;;;482                    last = this;
;;;483                    for (;;) {
;;;484                        this = state->lencode[last.val +
;;;485                                (BITS(last.bits + last.op) >> last.bits)];
;;;486                        if ((unsigned)(last.bits + this.bits) <= bits) break;
;;;487                        PULLBYTE();
;;;488                    }
;;;489                    DROPBITS(last.bits);
;;;490                }
;;;491                DROPBITS(this.bits);
;;;492                state->length = (unsigned)this.val;
;;;493    
;;;494                /* process literal */
;;;495                if (this.op == 0) {
;;;496                    Tracevv((stderr, this.val >= 0x20 && this.val < 0x7f ?
;;;497                            "inflate:         literal '%c'\n" :
;;;498                            "inflate:         literal 0x%02x\n", this.val));
;;;499                    ROOM();
;;;500                    *put++ = (unsigned char)(state->length);
;;;501                    left--;
;;;502                    state->mode = LEN;
;;;503                    break;
;;;504                }
;;;505    
;;;506                /* process end of block */
;;;507                if (this.op & 32) {
;;;508                    Tracevv((stderr, "inflate:         end of block\n"));
;;;509                    state->mode = TYPE;
;;;510                    break;
;;;511                }
;;;512    
;;;513                /* invalid code */
;;;514                if (this.op & 64) {
;;;515                    strm->msg = (char *)"invalid literal/length code";
;;;516                    state->mode = BAD;
;;;517                    break;
;;;518                }
;;;519    
;;;520                /* length code -- get extra bits, if any */
;;;521                state->extra = (unsigned)(this.op) & 15;
;;;522                if (state->extra != 0) {
;;;523                    NEEDBITS(state->extra);
;;;524                    state->length += BITS(state->extra);
;;;525                    DROPBITS(state->extra);
;;;526                }
;;;527                Tracevv((stderr, "inflate:         length %u\n", state->length));
;;;528    
;;;529                /* get distance code */
;;;530                for (;;) {
;;;531                    this = state->distcode[BITS(state->distbits)];
;;;532                    if ((unsigned)(this.bits) <= bits) break;
;;;533                    PULLBYTE();
;;;534                }
;;;535                if ((this.op & 0xf0) == 0) {
;;;536                    last = this;
;;;537                    for (;;) {
;;;538                        this = state->distcode[last.val +
;;;539                                (BITS(last.bits + last.op) >> last.bits)];
;;;540                        if ((unsigned)(last.bits + this.bits) <= bits) break;
;;;541                        PULLBYTE();
;;;542                    }
;;;543                    DROPBITS(last.bits);
;;;544                }
;;;545                DROPBITS(this.bits);
;;;546                if (this.op & 64) {
;;;547                    strm->msg = (char *)"invalid distance code";
;;;548                    state->mode = BAD;
;;;549                    break;
;;;550                }
;;;551                state->offset = (unsigned)this.val;
;;;552    
;;;553                /* get distance extra bits, if any */
;;;554                state->extra = (unsigned)(this.op) & 15;
;;;555                if (state->extra != 0) {
;;;556                    NEEDBITS(state->extra);
;;;557                    state->offset += BITS(state->extra);
;;;558                    DROPBITS(state->extra);
;;;559                }
;;;560                if (state->offset > state->wsize - (state->whave < state->wsize ?
;;;561                                                    left : 0)) {
;;;562                    strm->msg = (char *)"invalid distance too far back";
;;;563                    state->mode = BAD;
;;;564                    break;
;;;565                }
;;;566                Tracevv((stderr, "inflate:         distance %u\n", state->offset));
;;;567    
;;;568                /* copy match from window to output */
;;;569                do {
;;;570                    ROOM();
;;;571                    copy = state->wsize - state->offset;
;;;572                    if (copy < left) {
;;;573                        from = put + copy;
;;;574                        copy = left - copy;
;;;575                    }
;;;576                    else {
;;;577                        from = put - state->offset;
;;;578                        copy = left;
;;;579                    }
;;;580                    if (copy > state->length) copy = state->length;
;;;581                    state->length -= copy;
;;;582                    left -= copy;
;;;583                    do {
;;;584                        *put++ = *from++;
;;;585                    } while (--copy);
;;;586                } while (state->length != 0);
;;;587                break;
;;;588    
;;;589            case DONE:
;;;590                /* inflate stream terminated properly -- write leftover output */
;;;591                ret = Z_STREAM_END;
;;;592                if (left < state->wsize) {
;;;593                    if (out(out_desc, state->window, state->wsize - left))
;;;594                        ret = Z_BUF_ERROR;
;;;595                }
;;;596                goto inf_leave;
;;;597    
;;;598            case BAD:
;;;599                ret = Z_DATA_ERROR;
;;;600                goto inf_leave;
;;;601    
;;;602            default:                /* can't happen, but makes compilers happy */
;;;603                ret = Z_STREAM_ERROR;
;;;604                goto inf_leave;
;;;605            }
;;;606    
;;;607        /* Return unused input */
;;;608      inf_leave:
;;;609        strm->next_in = next;
;;;610        strm->avail_in = have;
;;;611        return ret;
;;;612    }
0000b8  b00d              ADD      sp,sp,#0x34
0000ba  e8bd8ff0          POP      {r4-r11,pc}
                  |L1.190|
0000be  f8d8401c          LDR      r4,[r8,#0x1c]         ;266
0000c2  2000              MOVS     r0,#0                 ;269
0000c4  f8c80018          STR      r0,[r8,#0x18]         ;269
0000c8  200b              MOVS     r0,#0xb               ;270
0000ca  7020              STRB     r0,[r4,#0]            ;270
0000cc  2000              MOVS     r0,#0                 ;271
0000ce  6060              STR      r0,[r4,#4]            ;271
0000d0  62e0              STR      r0,[r4,#0x2c]         ;272
0000d2  f8d80000          LDR      r0,[r8,#0]            ;273
0000d6  9008              STR      r0,[sp,#0x20]         ;273
0000d8  9808              LDR      r0,[sp,#0x20]         ;274
0000da  b110              CBZ      r0,|L1.226|
0000dc  f8d80004          LDR      r0,[r8,#4]            ;274
0000e0  e000              B        |L1.228|
                  |L1.226|
0000e2  2000              MOVS     r0,#0                 ;274
                  |L1.228|
0000e4  4607              MOV      r7,r0                 ;274
0000e6  2600              MOVS     r6,#0                 ;275
0000e8  2500              MOVS     r5,#0                 ;276
0000ea  6b60              LDR      r0,[r4,#0x34]         ;277
0000ec  9007              STR      r0,[sp,#0x1c]         ;277
0000ee  f8d49028          LDR      r9,[r4,#0x28]         ;278
0000f2  bf00              NOP                            ;281
                  |L1.244|
0000f4  7820              LDRB     r0,[r4,#0]            ;282
0000f6  2812              CMP      r0,#0x12              ;282
0000f8  d076              BEQ      |L1.488|
0000fa  dc06              BGT      |L1.266|
0000fc  280b              CMP      r0,#0xb               ;282
0000fe  d009              BEQ      |L1.276|
000100  280d              CMP      r0,#0xd               ;282
000102  d05a              BEQ      |L1.442|
000104  280f              CMP      r0,#0xf               ;282
                  |L1.262|
000106  d170              BNE      |L1.490|
000108  e0d6              B        |L1.696|
                  |L1.266|
00010a  281a              CMP      r0,#0x1a              ;282
00010c  d06e              BEQ      |L1.492|
00010e  281b              CMP      r0,#0x1b              ;282
000110  d1f9              BNE      |L1.262|
000112  e3f2              B        |L1.2298|
                  |L1.276|
000114  6860              LDR      r0,[r4,#4]            ;285
000116  b150              CBZ      r0,|L1.302|
000118  bf00              NOP                            ;286
00011a  f0050007          AND      r0,r5,#7              ;286
00011e  40c6              LSRS     r6,r6,r0              ;286
000120  f0050007          AND      r0,r5,#7              ;286
000124  1a2d              SUBS     r5,r5,r0              ;286
000126  bf00              NOP                            ;286
000128  201a              MOVS     r0,#0x1a              ;287
00012a  7020              STRB     r0,[r4,#0]            ;287
                  |L1.300|
00012c  e2e4              B        |L1.1784|
                  |L1.302|
00012e  bf00              NOP                            ;290
000130  e017              B        |L1.354|
                  |L1.306|
000132  bf00              NOP                            ;290
000134  bf00              NOP                            ;290
000136  b94f              CBNZ     r7,|L1.332|
000138  a908              ADD      r1,sp,#0x20           ;290
00013a  980b              LDR      r0,[sp,#0x2c]         ;290
00013c  47d0              BLX      r10                   ;290
00013e  4607              MOV      r7,r0                 ;290
000140  b927              CBNZ     r7,|L1.332|
000142  2000              MOVS     r0,#0                 ;290
000144  9008              STR      r0,[sp,#0x20]         ;290
000146  1f40              SUBS     r0,r0,#5              ;290
000148  9002              STR      r0,[sp,#8]            ;290
                  |L1.330|
00014a  e258              B        |L1.1534|
                  |L1.332|
00014c  bf00              NOP                            ;290
00014e  1e7f              SUBS     r7,r7,#1              ;290
000150  9808              LDR      r0,[sp,#0x20]         ;290
000152  7800              LDRB     r0,[r0,#0]            ;290
000154  9908              LDR      r1,[sp,#0x20]         ;290
000156  1c49              ADDS     r1,r1,#1              ;290
000158  40a8              LSLS     r0,r0,r5              ;290
00015a  4406              ADD      r6,r6,r0              ;290
00015c  9108              STR      r1,[sp,#0x20]         ;290
00015e  3508              ADDS     r5,r5,#8              ;290
000160  bf00              NOP                            ;290
                  |L1.354|
000162  2d03              CMP      r5,#3                 ;290
000164  d3e5              BCC      |L1.306|
000166  bf00              NOP                            ;290
000168  f0060001          AND      r0,r6,#1              ;291
00016c  6060              STR      r0,[r4,#4]            ;291
00016e  bf00              NOP                            ;292
000170  0876              LSRS     r6,r6,#1              ;292
000172  1e6d              SUBS     r5,r5,#1              ;292
000174  bf00              NOP                            ;292
000176  f0060003          AND      r0,r6,#3              ;293
00017a  b130              CBZ      r0,|L1.394|
00017c  2801              CMP      r0,#1                 ;293
00017e  d007              BEQ      |L1.400|
000180  2802              CMP      r0,#2                 ;293
000182  d00b              BEQ      |L1.412|
000184  2803              CMP      r0,#3                 ;293
000186  d112              BNE      |L1.430|
000188  e00b              B        |L1.418|
                  |L1.394|
00018a  200d              MOVS     r0,#0xd               ;297
00018c  7020              STRB     r0,[r4,#0]            ;297
00018e  e00e              B        |L1.430|
                  |L1.400|
000190  4620              MOV      r0,r4                 ;300
000192  f7fffffe          BL       fixedtables
000196  2012              MOVS     r0,#0x12              ;303
000198  7020              STRB     r0,[r4,#0]            ;303
00019a  e008              B        |L1.430|
                  |L1.412|
00019c  200f              MOVS     r0,#0xf               ;308
00019e  7020              STRB     r0,[r4,#0]            ;308
0001a0  e005              B        |L1.430|
                  |L1.418|
0001a2  a09d              ADR      r0,|L1.1048|
0001a4  f8c80018          STR      r0,[r8,#0x18]         ;311
0001a8  201b              MOVS     r0,#0x1b              ;312
0001aa  7020              STRB     r0,[r4,#0]            ;312
0001ac  bf00              NOP                            ;293
                  |L1.430|
0001ae  bf00              NOP                            ;298
0001b0  bf00              NOP                            ;314
0001b2  08b6              LSRS     r6,r6,#2              ;314
0001b4  1ead              SUBS     r5,r5,#2              ;314
0001b6  bf00              NOP                            ;314
0001b8  e7b8              B        |L1.300|
                  |L1.442|
0001ba  bf00              NOP                            ;319
0001bc  f0050007          AND      r0,r5,#7              ;319
0001c0  40c6              LSRS     r6,r6,r0              ;319
0001c2  f0050007          AND      r0,r5,#7              ;319
0001c6  1a2d              SUBS     r5,r5,r0              ;319
0001c8  bf00              NOP                            ;319
0001ca  bf00              NOP                            ;320
0001cc  e01a              B        |L1.516|
                  |L1.462|
0001ce  bf00              NOP                            ;320
0001d0  bf00              NOP                            ;320
0001d2  b967              CBNZ     r7,|L1.494|
0001d4  a908              ADD      r1,sp,#0x20           ;320
0001d6  980b              LDR      r0,[sp,#0x2c]         ;320
0001d8  47d0              BLX      r10                   ;320
0001da  4607              MOV      r7,r0                 ;320
0001dc  b93f              CBNZ     r7,|L1.494|
0001de  2000              MOVS     r0,#0                 ;320
0001e0  9008              STR      r0,[sp,#0x20]         ;320
0001e2  1f40              SUBS     r0,r0,#5              ;320
0001e4  9002              STR      r0,[sp,#8]            ;320
0001e6  e7b0              B        |L1.330|
                  |L1.488|
0001e8  e2c4              B        |L1.1908|
                  |L1.490|
0001ea  e3dc              B        |L1.2470|
                  |L1.492|
0001ec  e3dc              B        |L1.2472|
                  |L1.494|
0001ee  bf00              NOP                            ;320
0001f0  1e7f              SUBS     r7,r7,#1              ;320
0001f2  9808              LDR      r0,[sp,#0x20]         ;320
0001f4  7800              LDRB     r0,[r0,#0]            ;320
0001f6  9908              LDR      r1,[sp,#0x20]         ;320
0001f8  1c49              ADDS     r1,r1,#1              ;320
0001fa  40a8              LSLS     r0,r0,r5              ;320
0001fc  4406              ADD      r6,r6,r0              ;320
0001fe  9108              STR      r1,[sp,#0x20]         ;320
000200  3508              ADDS     r5,r5,#8              ;320
000202  bf00              NOP                            ;320
                  |L1.516|
000204  2d20              CMP      r5,#0x20              ;320
000206  d3e2              BCC      |L1.462|
000208  bf00              NOP                            ;320
00020a  b2b0              UXTH     r0,r6                 ;321
00020c  f64f71ff          MOV      r1,#0xffff            ;321
000210  ea814116          EOR      r1,r1,r6,LSR #16      ;321
000214  4288              CMP      r0,r1                 ;321
000216  d005              BEQ      |L1.548|
000218  a084              ADR      r0,|L1.1068|
00021a  f8c80018          STR      r0,[r8,#0x18]         ;322
00021e  201b              MOVS     r0,#0x1b              ;323
000220  7020              STRB     r0,[r4,#0]            ;323
000222  e783              B        |L1.300|
                  |L1.548|
000224  b2b0              UXTH     r0,r6                 ;326
000226  6420              STR      r0,[r4,#0x40]         ;326
000228  bf00              NOP                            ;329
00022a  2600              MOVS     r6,#0                 ;329
00022c  2500              MOVS     r5,#0                 ;329
00022e  bf00              NOP                            ;329
000230  e03c              B        |L1.684|
                  |L1.562|
000232  f8d4b040          LDR      r11,[r4,#0x40]        ;333
000236  bf00              NOP                            ;334
000238  b94f              CBNZ     r7,|L1.590|
00023a  a908              ADD      r1,sp,#0x20           ;334
00023c  980b              LDR      r0,[sp,#0x2c]         ;334
00023e  47d0              BLX      r10                   ;334
000240  4607              MOV      r7,r0                 ;334
000242  b927              CBNZ     r7,|L1.590|
000244  2000              MOVS     r0,#0                 ;334
000246  9008              STR      r0,[sp,#0x20]         ;334
000248  1f40              SUBS     r0,r0,#5              ;334
00024a  9002              STR      r0,[sp,#8]            ;334
00024c  e77d              B        |L1.330|
                  |L1.590|
00024e  bf00              NOP                            ;334
000250  bf00              NOP                            ;335
000252  f1b90f00          CMP      r9,#0                 ;335
000256  d10f              BNE      |L1.632|
000258  6b60              LDR      r0,[r4,#0x34]         ;335
00025a  9007              STR      r0,[sp,#0x1c]         ;335
00025c  f8d49028          LDR      r9,[r4,#0x28]         ;335
000260  f8c4902c          STR      r9,[r4,#0x2c]         ;335
000264  464a              MOV      r2,r9                 ;335
000266  9b0c              LDR      r3,[sp,#0x30]         ;335
000268  9907              LDR      r1,[sp,#0x1c]         ;335
00026a  9816              LDR      r0,[sp,#0x58]         ;335
00026c  4798              BLX      r3                    ;335
00026e  b118              CBZ      r0,|L1.632|
000270  f06f0004          MVN      r0,#4                 ;335
000274  9002              STR      r0,[sp,#8]            ;335
000276  e768              B        |L1.330|
                  |L1.632|
000278  bf00              NOP                            ;335
00027a  45bb              CMP      r11,r7                ;336
00027c  d900              BLS      |L1.640|
00027e  46bb              MOV      r11,r7                ;336
                  |L1.640|
000280  45cb              CMP      r11,r9                ;337
000282  d900              BLS      |L1.646|
000284  46cb              MOV      r11,r9                ;337
                  |L1.646|
000286  465a              MOV      r2,r11                ;338
000288  e9dd0107          LDRD     r0,r1,[sp,#0x1c]      ;338
00028c  f7fffffe          BL       __aeabi_memcpy
000290  eba7070b          SUB      r7,r7,r11             ;339
000294  9808              LDR      r0,[sp,#0x20]         ;340
000296  4458              ADD      r0,r0,r11             ;340
000298  9008              STR      r0,[sp,#0x20]         ;340
00029a  eba9090b          SUB      r9,r9,r11             ;341
00029e  9807              LDR      r0,[sp,#0x1c]         ;342
0002a0  4458              ADD      r0,r0,r11             ;342
0002a2  9007              STR      r0,[sp,#0x1c]         ;342
0002a4  6c20              LDR      r0,[r4,#0x40]         ;343
0002a6  eba0000b          SUB      r0,r0,r11             ;343
0002aa  6420              STR      r0,[r4,#0x40]         ;343
                  |L1.684|
0002ac  6c20              LDR      r0,[r4,#0x40]         ;332
0002ae  2800              CMP      r0,#0                 ;332
0002b0  d1bf              BNE      |L1.562|
0002b2  200b              MOVS     r0,#0xb               ;346
0002b4  7020              STRB     r0,[r4,#0]            ;346
0002b6  e739              B        |L1.300|
                  |L1.696|
0002b8  bf00              NOP                            ;351
0002ba  e017              B        |L1.748|
                  |L1.700|
0002bc  bf00              NOP                            ;351
0002be  bf00              NOP                            ;351
0002c0  b94f              CBNZ     r7,|L1.726|
0002c2  a908              ADD      r1,sp,#0x20           ;351
0002c4  980b              LDR      r0,[sp,#0x2c]         ;351
0002c6  47d0              BLX      r10                   ;351
0002c8  4607              MOV      r7,r0                 ;351
0002ca  b927              CBNZ     r7,|L1.726|
0002cc  2000              MOVS     r0,#0                 ;351
0002ce  9008              STR      r0,[sp,#0x20]         ;351
0002d0  1f40              SUBS     r0,r0,#5              ;351
0002d2  9002              STR      r0,[sp,#8]            ;351
0002d4  e739              B        |L1.330|
                  |L1.726|
0002d6  bf00              NOP                            ;351
0002d8  1e7f              SUBS     r7,r7,#1              ;351
0002da  9808              LDR      r0,[sp,#0x20]         ;351
0002dc  7800              LDRB     r0,[r0,#0]            ;351
0002de  9908              LDR      r1,[sp,#0x20]         ;351
0002e0  1c49              ADDS     r1,r1,#1              ;351
0002e2  40a8              LSLS     r0,r0,r5              ;351
0002e4  4406              ADD      r6,r6,r0              ;351
0002e6  9108              STR      r1,[sp,#0x20]         ;351
0002e8  3508              ADDS     r5,r5,#8              ;351
0002ea  bf00              NOP                            ;351
                  |L1.748|
0002ec  2d0e              CMP      r5,#0xe               ;351
0002ee  d3e5              BCC      |L1.700|
0002f0  bf00              NOP                            ;351
0002f2  f006001f          AND      r0,r6,#0x1f           ;352
0002f6  f2001001          ADD      r0,r0,#0x101          ;352
0002fa  6620              STR      r0,[r4,#0x60]         ;352
0002fc  bf00              NOP                            ;353
0002fe  0976              LSRS     r6,r6,#5              ;353
000300  1f6d              SUBS     r5,r5,#5              ;353
000302  bf00              NOP                            ;353
000304  f006001f          AND      r0,r6,#0x1f           ;354
000308  1c40              ADDS     r0,r0,#1              ;354
00030a  6660              STR      r0,[r4,#0x64]         ;354
00030c  bf00              NOP                            ;355
00030e  0976              LSRS     r6,r6,#5              ;355
000310  1f6d              SUBS     r5,r5,#5              ;355
000312  bf00              NOP                            ;355
000314  f006000f          AND      r0,r6,#0xf            ;356
000318  1d00              ADDS     r0,r0,#4              ;356
00031a  65e0              STR      r0,[r4,#0x5c]         ;356
00031c  bf00              NOP                            ;357
00031e  0936              LSRS     r6,r6,#4              ;357
000320  1f2d              SUBS     r5,r5,#4              ;357
000322  bf00              NOP                            ;357
000324  6e20              LDR      r0,[r4,#0x60]         ;359
000326  f5b07f8f          CMP      r0,#0x11e             ;359
00032a  d802              BHI      |L1.818|
00032c  6e60              LDR      r0,[r4,#0x64]         ;359
00032e  281e              CMP      r0,#0x1e              ;359
000330  d905              BLS      |L1.830|
                  |L1.818|
000332  a046              ADR      r0,|L1.1100|
000334  f8c80018          STR      r0,[r8,#0x18]         ;360
000338  201b              MOVS     r0,#0x1b              ;361
00033a  7020              STRB     r0,[r4,#0]            ;361
00033c  e6f6              B        |L1.300|
                  |L1.830|
00033e  2000              MOVS     r0,#0                 ;368
000340  66a0              STR      r0,[r4,#0x68]         ;368
000342  e02c              B        |L1.926|
                  |L1.836|
000344  bf00              NOP                            ;370
000346  e017              B        |L1.888|
                  |L1.840|
000348  bf00              NOP                            ;370
00034a  bf00              NOP                            ;370
00034c  b94f              CBNZ     r7,|L1.866|
00034e  a908              ADD      r1,sp,#0x20           ;370
000350  980b              LDR      r0,[sp,#0x2c]         ;370
000352  47d0              BLX      r10                   ;370
000354  4607              MOV      r7,r0                 ;370
000356  b927              CBNZ     r7,|L1.866|
000358  2000              MOVS     r0,#0                 ;370
00035a  9008              STR      r0,[sp,#0x20]         ;370
00035c  1f40              SUBS     r0,r0,#5              ;370
00035e  9002              STR      r0,[sp,#8]            ;370
000360  e6f3              B        |L1.330|
                  |L1.866|
000362  bf00              NOP                            ;370
000364  1e7f              SUBS     r7,r7,#1              ;370
000366  9808              LDR      r0,[sp,#0x20]         ;370
000368  7800              LDRB     r0,[r0,#0]            ;370
00036a  9908              LDR      r1,[sp,#0x20]         ;370
00036c  1c49              ADDS     r1,r1,#1              ;370
00036e  40a8              LSLS     r0,r0,r5              ;370
000370  4406              ADD      r6,r6,r0              ;370
000372  9108              STR      r1,[sp,#0x20]         ;370
000374  3508              ADDS     r5,r5,#8              ;370
000376  bf00              NOP                            ;370
                  |L1.888|
000378  2d03              CMP      r5,#3                 ;370
00037a  d3e5              BCC      |L1.840|
00037c  bf00              NOP                            ;370
00037e  f0060107          AND      r1,r6,#7              ;371
000382  6ea2              LDR      r2,[r4,#0x68]         ;371
000384  1c50              ADDS     r0,r2,#1              ;371
000386  66a0              STR      r0,[r4,#0x68]         ;371
000388  4839              LDR      r0,|L1.1136|
00038a  f8302012          LDRH     r2,[r0,r2,LSL #1]     ;371
00038e  f1040070          ADD      r0,r4,#0x70           ;371
000392  f8201012          STRH     r1,[r0,r2,LSL #1]     ;371
000396  bf00              NOP                            ;372
000398  08f6              LSRS     r6,r6,#3              ;372
00039a  1eed              SUBS     r5,r5,#3              ;372
00039c  bf00              NOP                            ;372
                  |L1.926|
00039e  6de1              LDR      r1,[r4,#0x5c]         ;369
0003a0  6ea0              LDR      r0,[r4,#0x68]         ;369
0003a2  4288              CMP      r0,r1                 ;369
0003a4  d3ce              BCC      |L1.836|
0003a6  e00a              B        |L1.958|
                  |L1.936|
0003a8  2100              MOVS     r1,#0                 ;375
0003aa  6ea2              LDR      r2,[r4,#0x68]         ;375
0003ac  1c50              ADDS     r0,r2,#1              ;375
0003ae  66a0              STR      r0,[r4,#0x68]         ;375
0003b0  482f              LDR      r0,|L1.1136|
0003b2  f8302012          LDRH     r2,[r0,r2,LSL #1]     ;375
0003b6  f1040070          ADD      r0,r4,#0x70           ;375
0003ba  f8201012          STRH     r1,[r0,r2,LSL #1]     ;375
                  |L1.958|
0003be  6ea0              LDR      r0,[r4,#0x68]         ;374
0003c0  2813              CMP      r0,#0x13              ;374
0003c2  d3f1              BCC      |L1.936|
0003c4  f50460a6          ADD      r0,r4,#0x530          ;376
0003c8  66e0              STR      r0,[r4,#0x6c]         ;376
0003ca  6ee0              LDR      r0,[r4,#0x6c]         ;377
0003cc  64e0              STR      r0,[r4,#0x4c]         ;377
0003ce  2007              MOVS     r0,#7                 ;378
0003d0  6560              STR      r0,[r4,#0x54]         ;378
0003d2  f504703c          ADD      r0,r4,#0x2f0          ;379
0003d6  f1040154          ADD      r1,r4,#0x54           ;379
0003da  f104036c          ADD      r3,r4,#0x6c           ;379
0003de  2213              MOVS     r2,#0x13              ;379
0003e0  e9cd1000          STRD     r1,r0,[sp,#0]         ;379
0003e4  311c              ADDS     r1,r1,#0x1c           ;379
0003e6  2000              MOVS     r0,#0                 ;379
0003e8  f7fffffe          BL       inflate_table
0003ec  9002              STR      r0,[sp,#8]            ;379
0003ee  9802              LDR      r0,[sp,#8]            ;381
0003f0  b128              CBZ      r0,|L1.1022|
0003f2  a020              ADR      r0,|L1.1140|
0003f4  f8c80018          STR      r0,[r8,#0x18]         ;382
0003f8  201b              MOVS     r0,#0x1b              ;383
0003fa  7020              STRB     r0,[r4,#0]            ;383
0003fc  e696              B        |L1.300|
                  |L1.1022|
0003fe  e047              B        |L1.1168|
                  |L1.1024|
000400  312e322e          DCB      "1.2.3",0
000404  3300    
000406  00                DCB      0
000407  00                DCB      0
                  |L1.1032|
                          DCD      zcalloc
                  |L1.1036|
                          DCD      zcfree
                  |L1.1040|
                          DCD      lenfix
                  |L1.1044|
                          DCD      distfix
                  |L1.1048|
000418  696e7661          DCB      "invalid block type",0
00041c  6c696420
000420  626c6f63
000424  6b207479
000428  706500  
00042b  00                DCB      0
                  |L1.1068|
00042c  696e7661          DCB      "invalid stored block lengths",0
000430  6c696420
000434  73746f72
000438  65642062
00043c  6c6f636b
000440  206c656e
000444  67746873
000448  00      
000449  00                DCB      0
00044a  00                DCB      0
00044b  00                DCB      0
                  |L1.1100|
00044c  746f6f20          DCB      "too many length or distance symbols",0
000450  6d616e79
000454  206c656e
000458  67746820
00045c  6f722064
000460  69737461
000464  6e636520
000468  73796d62
00046c  6f6c7300
                  |L1.1136|
                          DCD      order
                  |L1.1140|
000474  696e7661          DCB      "invalid code lengths set",0
000478  6c696420
00047c  636f6465
000480  206c656e
000484  67746873
000488  20736574
00048c  00      
00048d  00                DCB      0
00048e  00                DCB      0
00048f  00                DCB      0
                  |L1.1168|
000490  2000              MOVS     r0,#0                 ;389
000492  66a0              STR      r0,[r4,#0x68]         ;389
000494  e125              B        |L1.1762|
                  |L1.1174|
000496  bf00              NOP                            ;391
                  |L1.1176|
000498  f8942054          LDRB     r2,[r4,#0x54]         ;392
00049c  2001              MOVS     r0,#1                 ;392
00049e  4090              LSLS     r0,r0,r2              ;392
0004a0  1e40              SUBS     r0,r0,#1              ;392
0004a2  4030              ANDS     r0,r0,r6              ;392
0004a4  6ce1              LDR      r1,[r4,#0x4c]         ;392
0004a6  eb010080          ADD      r0,r1,r0,LSL #2       ;392
0004aa  6800              LDR      r0,[r0,#0]            ;392
0004ac  9005              STR      r0,[sp,#0x14]         ;392
0004ae  f89d0015          LDRB     r0,[sp,#0x15]         ;393
0004b2  42a8              CMP      r0,r5                 ;393
0004b4  d800              BHI      |L1.1208|
0004b6  e017              B        |L1.1256|
                  |L1.1208|
0004b8  bf00              NOP                            ;394
0004ba  bf00              NOP                            ;394
0004bc  b94f              CBNZ     r7,|L1.1234|
0004be  a908              ADD      r1,sp,#0x20           ;394
0004c0  980b              LDR      r0,[sp,#0x2c]         ;394
0004c2  47d0              BLX      r10                   ;394
0004c4  4607              MOV      r7,r0                 ;394
0004c6  b927              CBNZ     r7,|L1.1234|
0004c8  2000              MOVS     r0,#0                 ;394
0004ca  9008              STR      r0,[sp,#0x20]         ;394
0004cc  1f40              SUBS     r0,r0,#5              ;394
0004ce  9002              STR      r0,[sp,#8]            ;394
0004d0  e3d2              B        |L1.3192|
                  |L1.1234|
0004d2  bf00              NOP                            ;394
0004d4  1e7f              SUBS     r7,r7,#1              ;394
0004d6  9808              LDR      r0,[sp,#0x20]         ;394
0004d8  7800              LDRB     r0,[r0,#0]            ;394
0004da  9908              LDR      r1,[sp,#0x20]         ;394
0004dc  1c49              ADDS     r1,r1,#1              ;394
0004de  40a8              LSLS     r0,r0,r5              ;394
0004e0  4406              ADD      r6,r6,r0              ;394
0004e2  9108              STR      r1,[sp,#0x20]         ;394
0004e4  3508              ADDS     r5,r5,#8              ;394
0004e6  e7d7              B        |L1.1176|
                  |L1.1256|
0004e8  bf00              NOP                            ;393
0004ea  f8bd0016          LDRH     r0,[sp,#0x16]         ;396
0004ee  2810              CMP      r0,#0x10              ;396
0004f0  da30              BGE      |L1.1364|
0004f2  bf00              NOP                            ;397
0004f4  e017              B        |L1.1318|
                  |L1.1270|
0004f6  bf00              NOP                            ;397
0004f8  bf00              NOP                            ;397
0004fa  b94f              CBNZ     r7,|L1.1296|
0004fc  a908              ADD      r1,sp,#0x20           ;397
0004fe  980b              LDR      r0,[sp,#0x2c]         ;397
000500  47d0              BLX      r10                   ;397
000502  4607              MOV      r7,r0                 ;397
000504  b927              CBNZ     r7,|L1.1296|
000506  2000              MOVS     r0,#0                 ;397
000508  9008              STR      r0,[sp,#0x20]         ;397
00050a  1f40              SUBS     r0,r0,#5              ;397
00050c  9002              STR      r0,[sp,#8]            ;397
00050e  e3b3              B        |L1.3192|
                  |L1.1296|
000510  bf00              NOP                            ;397
000512  1e7f              SUBS     r7,r7,#1              ;397
000514  9808              LDR      r0,[sp,#0x20]         ;397
000516  7800              LDRB     r0,[r0,#0]            ;397
000518  9908              LDR      r1,[sp,#0x20]         ;397
00051a  1c49              ADDS     r1,r1,#1              ;397
00051c  40a8              LSLS     r0,r0,r5              ;397
00051e  4406              ADD      r6,r6,r0              ;397
000520  9108              STR      r1,[sp,#0x20]         ;397
000522  3508              ADDS     r5,r5,#8              ;397
000524  bf00              NOP                            ;397
                  |L1.1318|
000526  f89d0015          LDRB     r0,[sp,#0x15]         ;397
00052a  42a8              CMP      r0,r5                 ;397
00052c  d8e3              BHI      |L1.1270|
00052e  bf00              NOP                            ;397
000530  bf00              NOP                            ;398
000532  f89d0015          LDRB     r0,[sp,#0x15]         ;398
000536  40c6              LSRS     r6,r6,r0              ;398
000538  f89d0015          LDRB     r0,[sp,#0x15]         ;398
00053c  1a2d              SUBS     r5,r5,r0              ;398
00053e  bf00              NOP                            ;398
000540  f8bd1016          LDRH     r1,[sp,#0x16]         ;399
000544  6ea2              LDR      r2,[r4,#0x68]         ;399
000546  1c50              ADDS     r0,r2,#1              ;399
000548  66a0              STR      r0,[r4,#0x68]         ;399
00054a  f1040070          ADD      r0,r4,#0x70           ;399
00054e  f8201012          STRH     r1,[r0,r2,LSL #1]     ;399
000552  e0c6              B        |L1.1762|
                  |L1.1364|
000554  f8bd0016          LDRH     r0,[sp,#0x16]         ;402
000558  2810              CMP      r0,#0x10              ;402
00055a  d13e              BNE      |L1.1498|
00055c  bf00              NOP                            ;403
00055e  e017              B        |L1.1424|
                  |L1.1376|
000560  bf00              NOP                            ;403
000562  bf00              NOP                            ;403
000564  b94f              CBNZ     r7,|L1.1402|
000566  a908              ADD      r1,sp,#0x20           ;403
000568  980b              LDR      r0,[sp,#0x2c]         ;403
00056a  47d0              BLX      r10                   ;403
00056c  4607              MOV      r7,r0                 ;403
00056e  b927              CBNZ     r7,|L1.1402|
000570  2000              MOVS     r0,#0                 ;403
000572  9008              STR      r0,[sp,#0x20]         ;403
000574  1f40              SUBS     r0,r0,#5              ;403
000576  9002              STR      r0,[sp,#8]            ;403
000578  e37e              B        |L1.3192|
                  |L1.1402|
00057a  bf00              NOP                            ;403
00057c  1e7f              SUBS     r7,r7,#1              ;403
00057e  9808              LDR      r0,[sp,#0x20]         ;403
000580  7800              LDRB     r0,[r0,#0]            ;403
000582  9908              LDR      r1,[sp,#0x20]         ;403
000584  1c49              ADDS     r1,r1,#1              ;403
000586  40a8              LSLS     r0,r0,r5              ;403
000588  4406              ADD      r6,r6,r0              ;403
00058a  9108              STR      r1,[sp,#0x20]         ;403
00058c  3508              ADDS     r5,r5,#8              ;403
00058e  bf00              NOP                            ;403
                  |L1.1424|
000590  f89d0015          LDRB     r0,[sp,#0x15]         ;403
000594  1c80              ADDS     r0,r0,#2              ;403
000596  42a8              CMP      r0,r5                 ;403
000598  d8e2              BHI      |L1.1376|
00059a  bf00              NOP                            ;403
00059c  bf00              NOP                            ;404
00059e  f89d0015          LDRB     r0,[sp,#0x15]         ;404
0005a2  40c6              LSRS     r6,r6,r0              ;404
0005a4  f89d0015          LDRB     r0,[sp,#0x15]         ;404
0005a8  1a2d              SUBS     r5,r5,r0              ;404
0005aa  bf00              NOP                            ;404
0005ac  6ea0              LDR      r0,[r4,#0x68]         ;405
0005ae  b928              CBNZ     r0,|L1.1468|
0005b0  a0fe              ADR      r0,|L1.2476|
0005b2  f8c80018          STR      r0,[r8,#0x18]         ;406
0005b6  201b              MOVS     r0,#0x1b              ;407
0005b8  7020              STRB     r0,[r4,#0]            ;407
0005ba  e099              B        |L1.1776|
                  |L1.1468|
0005bc  6ea0              LDR      r0,[r4,#0x68]         ;410
0005be  1e40              SUBS     r0,r0,#1              ;410
0005c0  f1040170          ADD      r1,r4,#0x70           ;410
0005c4  f8310010          LDRH     r0,[r1,r0,LSL #1]     ;410
0005c8  9003              STR      r0,[sp,#0xc]          ;410
0005ca  f0060003          AND      r0,r6,#3              ;411
0005ce  f1000b03          ADD      r11,r0,#3             ;411
0005d2  bf00              NOP                            ;412
0005d4  08b6              LSRS     r6,r6,#2              ;412
0005d6  1ead              SUBS     r5,r5,#2              ;412
0005d8  e067              B        |L1.1706|
                  |L1.1498|
0005da  f8bd0016          LDRH     r0,[sp,#0x16]         ;414
0005de  2811              CMP      r0,#0x11              ;414
0005e0  d131              BNE      |L1.1606|
0005e2  bf00              NOP                            ;415
0005e4  e017              B        |L1.1558|
                  |L1.1510|
0005e6  bf00              NOP                            ;415
0005e8  bf00              NOP                            ;415
0005ea  b94f              CBNZ     r7,|L1.1536|
0005ec  a908              ADD      r1,sp,#0x20           ;415
0005ee  980b              LDR      r0,[sp,#0x2c]         ;415
0005f0  47d0              BLX      r10                   ;415
0005f2  4607              MOV      r7,r0                 ;415
0005f4  b927              CBNZ     r7,|L1.1536|
0005f6  2000              MOVS     r0,#0                 ;415
0005f8  9008              STR      r0,[sp,#0x20]         ;415
0005fa  1f40              SUBS     r0,r0,#5              ;415
0005fc  9002              STR      r0,[sp,#8]            ;415
                  |L1.1534|
0005fe  e33b              B        |L1.3192|
                  |L1.1536|
000600  bf00              NOP                            ;415
000602  1e7f              SUBS     r7,r7,#1              ;415
000604  9808              LDR      r0,[sp,#0x20]         ;415
000606  7800              LDRB     r0,[r0,#0]            ;415
000608  9908              LDR      r1,[sp,#0x20]         ;415
00060a  1c49              ADDS     r1,r1,#1              ;415
00060c  40a8              LSLS     r0,r0,r5              ;415
00060e  4406              ADD      r6,r6,r0              ;415
000610  9108              STR      r1,[sp,#0x20]         ;415
000612  3508              ADDS     r5,r5,#8              ;415
000614  bf00              NOP                            ;415
                  |L1.1558|
000616  f89d0015          LDRB     r0,[sp,#0x15]         ;415
00061a  1cc0              ADDS     r0,r0,#3              ;415
00061c  42a8              CMP      r0,r5                 ;415
00061e  d8e2              BHI      |L1.1510|
000620  bf00              NOP                            ;415
000622  bf00              NOP                            ;416
000624  f89d0015          LDRB     r0,[sp,#0x15]         ;416
000628  40c6              LSRS     r6,r6,r0              ;416
00062a  f89d0015          LDRB     r0,[sp,#0x15]         ;416
00062e  1a2d              SUBS     r5,r5,r0              ;416
000630  bf00              NOP                            ;416
000632  2000              MOVS     r0,#0                 ;417
000634  9003              STR      r0,[sp,#0xc]          ;417
000636  f0060007          AND      r0,r6,#7              ;418
00063a  f1000b03          ADD      r11,r0,#3             ;418
00063e  bf00              NOP                            ;419
000640  08f6              LSRS     r6,r6,#3              ;419
000642  1eed              SUBS     r5,r5,#3              ;419
000644  e031              B        |L1.1706|
                  |L1.1606|
000646  bf00              NOP                            ;422
000648  e017              B        |L1.1658|
                  |L1.1610|
00064a  bf00              NOP                            ;422
00064c  bf00              NOP                            ;422
00064e  b94f              CBNZ     r7,|L1.1636|
000650  a908              ADD      r1,sp,#0x20           ;422
000652  980b              LDR      r0,[sp,#0x2c]         ;422
000654  47d0              BLX      r10                   ;422
000656  4607              MOV      r7,r0                 ;422
000658  b927              CBNZ     r7,|L1.1636|
00065a  2000              MOVS     r0,#0                 ;422
00065c  9008              STR      r0,[sp,#0x20]         ;422
00065e  1f40              SUBS     r0,r0,#5              ;422
000660  9002              STR      r0,[sp,#8]            ;422
000662  e309              B        |L1.3192|
                  |L1.1636|
000664  bf00              NOP                            ;422
000666  1e7f              SUBS     r7,r7,#1              ;422
000668  9808              LDR      r0,[sp,#0x20]         ;422
00066a  7800              LDRB     r0,[r0,#0]            ;422
00066c  9908              LDR      r1,[sp,#0x20]         ;422
00066e  1c49              ADDS     r1,r1,#1              ;422
000670  40a8              LSLS     r0,r0,r5              ;422
000672  4406              ADD      r6,r6,r0              ;422
000674  9108              STR      r1,[sp,#0x20]         ;422
000676  3508              ADDS     r5,r5,#8              ;422
000678  bf00              NOP                            ;422
                  |L1.1658|
00067a  f89d0015          LDRB     r0,[sp,#0x15]         ;422
00067e  1dc0              ADDS     r0,r0,#7              ;422
000680  42a8              CMP      r0,r5                 ;422
000682  d8e2              BHI      |L1.1610|
000684  bf00              NOP                            ;422
000686  bf00              NOP                            ;423
000688  f89d0015          LDRB     r0,[sp,#0x15]         ;423
00068c  40c6              LSRS     r6,r6,r0              ;423
00068e  f89d0015          LDRB     r0,[sp,#0x15]         ;423
000692  1a2d              SUBS     r5,r5,r0              ;423
000694  bf00              NOP                            ;423
000696  2000              MOVS     r0,#0                 ;424
000698  9003              STR      r0,[sp,#0xc]          ;424
00069a  f006007f          AND      r0,r6,#0x7f           ;425
00069e  f1000b0b          ADD      r11,r0,#0xb           ;425
0006a2  bf00              NOP                            ;426
0006a4  09f6              LSRS     r6,r6,#7              ;426
0006a6  1fed              SUBS     r5,r5,#7              ;426
0006a8  bf00              NOP                            ;426
                  |L1.1706|
0006aa  e9d40118          LDRD     r0,r1,[r4,#0x60]      ;428
0006ae  4408              ADD      r0,r0,r1              ;428
0006b0  6ea1              LDR      r1,[r4,#0x68]         ;428
0006b2  4459              ADD      r1,r1,r11             ;428
0006b4  4288              CMP      r0,r1                 ;428
0006b6  d205              BCS      |L1.1732|
0006b8  a0bc              ADR      r0,|L1.2476|
0006ba  f8c80018          STR      r0,[r8,#0x18]         ;429
0006be  201b              MOVS     r0,#0x1b              ;430
0006c0  7020              STRB     r0,[r4,#0]            ;430
0006c2  e015              B        |L1.1776|
                  |L1.1732|
0006c4  e008              B        |L1.1752|
                  |L1.1734|
0006c6  9803              LDR      r0,[sp,#0xc]          ;434
0006c8  b281              UXTH     r1,r0                 ;434
0006ca  6ea2              LDR      r2,[r4,#0x68]         ;434
0006cc  1c50              ADDS     r0,r2,#1              ;434
0006ce  66a0              STR      r0,[r4,#0x68]         ;434
0006d0  f1040070          ADD      r0,r4,#0x70           ;434
0006d4  f8201012          STRH     r1,[r0,r2,LSL #1]     ;434
                  |L1.1752|
0006d8  ea5f000b          MOVS     r0,r11                ;433
0006dc  f1ab0b01          SUB      r11,r11,#1            ;433
0006e0  d1f1              BNE      |L1.1734|
                  |L1.1762|
0006e2  e9d40118          LDRD     r0,r1,[r4,#0x60]      ;390
0006e6  4408              ADD      r0,r0,r1              ;390
0006e8  6ea1              LDR      r1,[r4,#0x68]         ;390
0006ea  4288              CMP      r0,r1                 ;390
0006ec  f63faed3          BHI      |L1.1174|
                  |L1.1776|
0006f0  bf00              NOP                            ;408
0006f2  7820              LDRB     r0,[r4,#0]            ;439
0006f4  281b              CMP      r0,#0x1b              ;439
0006f6  d100              BNE      |L1.1786|
                  |L1.1784|
0006f8  e2bc              B        |L1.3188|
                  |L1.1786|
0006fa  f50460a6          ADD      r0,r4,#0x530          ;442
0006fe  66e0              STR      r0,[r4,#0x6c]         ;442
000700  6ee0              LDR      r0,[r4,#0x6c]         ;443
000702  64e0              STR      r0,[r4,#0x4c]         ;443
000704  2009              MOVS     r0,#9                 ;444
000706  6560              STR      r0,[r4,#0x54]         ;444
000708  f504703c          ADD      r0,r4,#0x2f0          ;445
00070c  f1040154          ADD      r1,r4,#0x54           ;445
000710  e9cd1000          STRD     r1,r0,[sp,#0]         ;445
000714  f104036c          ADD      r3,r4,#0x6c           ;445
000718  311c              ADDS     r1,r1,#0x1c           ;445
00071a  2001              MOVS     r0,#1                 ;445
00071c  6e22              LDR      r2,[r4,#0x60]         ;445
00071e  f7fffffe          BL       inflate_table
000722  9002              STR      r0,[sp,#8]            ;445
000724  9802              LDR      r0,[sp,#8]            ;447
000726  b128              CBZ      r0,|L1.1844|
000728  a0a7              ADR      r0,|L1.2504|
00072a  f8c80018          STR      r0,[r8,#0x18]         ;448
00072e  201b              MOVS     r0,#0x1b              ;449
000730  7020              STRB     r0,[r4,#0]            ;449
000732  e29f              B        |L1.3188|
                  |L1.1844|
000734  6ee0              LDR      r0,[r4,#0x6c]         ;452
000736  6520              STR      r0,[r4,#0x50]         ;452
000738  2006              MOVS     r0,#6                 ;453
00073a  65a0              STR      r0,[r4,#0x58]         ;453
00073c  f504703c          ADD      r0,r4,#0x2f0          ;454
000740  f1040158          ADD      r1,r4,#0x58           ;454
000744  e9cd1000          STRD     r1,r0,[sp,#0]         ;454
000748  f1040070          ADD      r0,r4,#0x70           ;454
00074c  e9d43218          LDRD     r3,r2,[r4,#0x60]      ;454
000750  eb000143          ADD      r1,r0,r3,LSL #1       ;454
000754  1f03              SUBS     r3,r0,#4              ;454
000756  2002              MOVS     r0,#2                 ;454
000758  f7fffffe          BL       inflate_table
00075c  9002              STR      r0,[sp,#8]            ;454
00075e  9802              LDR      r0,[sp,#8]            ;456
000760  b128              CBZ      r0,|L1.1902|
000762  a0a0              ADR      r0,|L1.2532|
000764  f8c80018          STR      r0,[r8,#0x18]         ;457
000768  201b              MOVS     r0,#0x1b              ;458
00076a  7020              STRB     r0,[r4,#0]            ;458
00076c  e282              B        |L1.3188|
                  |L1.1902|
00076e  2012              MOVS     r0,#0x12              ;462
000770  7020              STRB     r0,[r4,#0]            ;462
000772  bf00              NOP                            ;464
                  |L1.1908|
000774  2f06              CMP      r7,#6                 ;466
000776  d32b              BCC      |L1.2000|
000778  f5b97f81          CMP      r9,#0x102             ;466
00077c  d328              BCC      |L1.2000|
00077e  bf00              NOP                            ;467
000780  9807              LDR      r0,[sp,#0x1c]         ;467
000782  f8c8000c          STR      r0,[r8,#0xc]          ;467
000786  f8c89010          STR      r9,[r8,#0x10]         ;467
00078a  9808              LDR      r0,[sp,#0x20]         ;467
00078c  f8c80000          STR      r0,[r8,#0]            ;467
000790  f8c87004          STR      r7,[r8,#4]            ;467
000794  63a6              STR      r6,[r4,#0x38]         ;467
000796  63e5              STR      r5,[r4,#0x3c]         ;467
000798  bf00              NOP                            ;467
00079a  e9d4100a          LDRD     r1,r0,[r4,#0x28]      ;468
00079e  4288              CMP      r0,r1                 ;468
0007a0  d203              BCS      |L1.1962|
0007a2  6aa0              LDR      r0,[r4,#0x28]         ;469
0007a4  eba00009          SUB      r0,r0,r9              ;469
0007a8  62e0              STR      r0,[r4,#0x2c]         ;469
                  |L1.1962|
0007aa  4640              MOV      r0,r8                 ;470
0007ac  6aa1              LDR      r1,[r4,#0x28]         ;470
0007ae  f7fffffe          BL       inflate_fast
0007b2  bf00              NOP                            ;471
0007b4  f8d8000c          LDR      r0,[r8,#0xc]          ;471
0007b8  9007              STR      r0,[sp,#0x1c]         ;471
0007ba  f8d89010          LDR      r9,[r8,#0x10]         ;471
0007be  f8d80000          LDR      r0,[r8,#0]            ;471
0007c2  9008              STR      r0,[sp,#0x20]         ;471
0007c4  f8d87004          LDR      r7,[r8,#4]            ;471
0007c8  6ba6              LDR      r6,[r4,#0x38]         ;471
0007ca  6be5              LDR      r5,[r4,#0x3c]         ;471
0007cc  bf00              NOP                            ;471
0007ce  e251              B        |L1.3188|
                  |L1.2000|
0007d0  bf00              NOP                            ;476
                  |L1.2002|
0007d2  f8942054          LDRB     r2,[r4,#0x54]         ;477
0007d6  2001              MOVS     r0,#1                 ;477
0007d8  4090              LSLS     r0,r0,r2              ;477
0007da  1e40              SUBS     r0,r0,#1              ;477
0007dc  4030              ANDS     r0,r0,r6              ;477
0007de  6ce1              LDR      r1,[r4,#0x4c]         ;477
0007e0  eb010080          ADD      r0,r1,r0,LSL #2       ;477
0007e4  6800              LDR      r0,[r0,#0]            ;477
0007e6  9005              STR      r0,[sp,#0x14]         ;477
0007e8  f89d0015          LDRB     r0,[sp,#0x15]         ;478
0007ec  42a8              CMP      r0,r5                 ;478
0007ee  d800              BHI      |L1.2034|
0007f0  e017              B        |L1.2082|
                  |L1.2034|
0007f2  bf00              NOP                            ;479
0007f4  bf00              NOP                            ;479
0007f6  b94f              CBNZ     r7,|L1.2060|
0007f8  a908              ADD      r1,sp,#0x20           ;479
0007fa  980b              LDR      r0,[sp,#0x2c]         ;479
0007fc  47d0              BLX      r10                   ;479
0007fe  4607              MOV      r7,r0                 ;479
000800  b927              CBNZ     r7,|L1.2060|
000802  2000              MOVS     r0,#0                 ;479
000804  9008              STR      r0,[sp,#0x20]         ;479
000806  1f40              SUBS     r0,r0,#5              ;479
000808  9002              STR      r0,[sp,#8]            ;479
00080a  e235              B        |L1.3192|
                  |L1.2060|
00080c  bf00              NOP                            ;479
00080e  1e7f              SUBS     r7,r7,#1              ;479
000810  9808              LDR      r0,[sp,#0x20]         ;479
000812  7800              LDRB     r0,[r0,#0]            ;479
000814  9908              LDR      r1,[sp,#0x20]         ;479
000816  1c49              ADDS     r1,r1,#1              ;479
000818  40a8              LSLS     r0,r0,r5              ;479
00081a  4406              ADD      r6,r6,r0              ;479
00081c  9108              STR      r1,[sp,#0x20]         ;479
00081e  3508              ADDS     r5,r5,#8              ;479
000820  e7d7              B        |L1.2002|
                  |L1.2082|
000822  bf00              NOP                            ;478
000824  f89d0014          LDRB     r0,[sp,#0x14]         ;481
000828  b380              CBZ      r0,|L1.2188|
00082a  f89d0014          LDRB     r0,[sp,#0x14]         ;481
00082e  f00000f0          AND      r0,r0,#0xf0           ;481
000832  bb58              CBNZ     r0,|L1.2188|
000834  9805              LDR      r0,[sp,#0x14]         ;482
000836  9004              STR      r0,[sp,#0x10]         ;482
000838  bf00              NOP                            ;483
                  |L1.2106|
00083a  f89d0011          LDRB     r0,[sp,#0x11]         ;484
00083e  f89d1010          LDRB     r1,[sp,#0x10]         ;484
000842  4401              ADD      r1,r1,r0              ;484
000844  2001              MOVS     r0,#1                 ;484
000846  4088              LSLS     r0,r0,r1              ;484
000848  1e40              SUBS     r0,r0,#1              ;484
00084a  4030              ANDS     r0,r0,r6              ;484
00084c  f89d1011          LDRB     r1,[sp,#0x11]         ;484
000850  40c8              LSRS     r0,r0,r1              ;484
000852  f8bd1012          LDRH     r1,[sp,#0x12]         ;484
000856  4408              ADD      r0,r0,r1              ;484
000858  6ce1              LDR      r1,[r4,#0x4c]         ;484
00085a  eb010080          ADD      r0,r1,r0,LSL #2       ;484
00085e  6800              LDR      r0,[r0,#0]            ;484
000860  9005              STR      r0,[sp,#0x14]         ;484
000862  f89d0011          LDRB     r0,[sp,#0x11]         ;486
000866  f89d1015          LDRB     r1,[sp,#0x15]         ;486
00086a  4408              ADD      r0,r0,r1              ;486
00086c  42a8              CMP      r0,r5                 ;486
00086e  d800              BHI      |L1.2162|
000870  e018              B        |L1.2212|
                  |L1.2162|
000872  bf00              NOP                            ;487
000874  bf00              NOP                            ;487
000876  b957              CBNZ     r7,|L1.2190|
000878  a908              ADD      r1,sp,#0x20           ;487
00087a  980b              LDR      r0,[sp,#0x2c]         ;487
00087c  47d0              BLX      r10                   ;487
00087e  4607              MOV      r7,r0                 ;487
000880  b92f              CBNZ     r7,|L1.2190|
000882  2000              MOVS     r0,#0                 ;487
000884  9008              STR      r0,[sp,#0x20]         ;487
000886  1f40              SUBS     r0,r0,#5              ;487
000888  9002              STR      r0,[sp,#8]            ;487
00088a  e1f5              B        |L1.3192|
                  |L1.2188|
00088c  e013              B        |L1.2230|
                  |L1.2190|
00088e  bf00              NOP                            ;487
000890  1e7f              SUBS     r7,r7,#1              ;487
000892  9808              LDR      r0,[sp,#0x20]         ;487
000894  7800              LDRB     r0,[r0,#0]            ;487
000896  9908              LDR      r1,[sp,#0x20]         ;487
000898  1c49              ADDS     r1,r1,#1              ;487
00089a  40a8              LSLS     r0,r0,r5              ;487
00089c  4406              ADD      r6,r6,r0              ;487
00089e  9108              STR      r1,[sp,#0x20]         ;487
0008a0  3508              ADDS     r5,r5,#8              ;487
0008a2  e7ca              B        |L1.2106|
                  |L1.2212|
0008a4  bf00              NOP                            ;486
0008a6  bf00              NOP                            ;489
0008a8  f89d0011          LDRB     r0,[sp,#0x11]         ;489
0008ac  40c6              LSRS     r6,r6,r0              ;489
0008ae  f89d0011          LDRB     r0,[sp,#0x11]         ;489
0008b2  1a2d              SUBS     r5,r5,r0              ;489
0008b4  bf00              NOP                            ;489
                  |L1.2230|
0008b6  bf00              NOP                            ;491
0008b8  f89d0015          LDRB     r0,[sp,#0x15]         ;491
0008bc  40c6              LSRS     r6,r6,r0              ;491
0008be  f89d0015          LDRB     r0,[sp,#0x15]         ;491
0008c2  1a2d              SUBS     r5,r5,r0              ;491
0008c4  bf00              NOP                            ;491
0008c6  f8bd0016          LDRH     r0,[sp,#0x16]         ;492
0008ca  6420              STR      r0,[r4,#0x40]         ;492
0008cc  f89d0014          LDRB     r0,[sp,#0x14]         ;495
0008d0  bb08              CBNZ     r0,|L1.2326|
0008d2  bf00              NOP                            ;499
0008d4  f1b90f00          CMP      r9,#0                 ;499
0008d8  d110              BNE      |L1.2300|
0008da  6b60              LDR      r0,[r4,#0x34]         ;499
0008dc  9007              STR      r0,[sp,#0x1c]         ;499
0008de  f8d49028          LDR      r9,[r4,#0x28]         ;499
0008e2  f8c4902c          STR      r9,[r4,#0x2c]         ;499
0008e6  464a              MOV      r2,r9                 ;499
0008e8  9b0c              LDR      r3,[sp,#0x30]         ;499
0008ea  9907              LDR      r1,[sp,#0x1c]         ;499
0008ec  9816              LDR      r0,[sp,#0x58]         ;499
0008ee  4798              BLX      r3                    ;499
0008f0  b120              CBZ      r0,|L1.2300|
0008f2  f06f0004          MVN      r0,#4                 ;499
0008f6  9002              STR      r0,[sp,#8]            ;499
0008f8  e1be              B        |L1.3192|
                  |L1.2298|
0008fa  e1b3              B        |L1.3172|
                  |L1.2300|
0008fc  bf00              NOP                            ;499
0008fe  f8941040          LDRB     r1,[r4,#0x40]         ;500
000902  9807              LDR      r0,[sp,#0x1c]         ;500
000904  7001              STRB     r1,[r0,#0]            ;500
000906  9807              LDR      r0,[sp,#0x1c]         ;500
000908  1c40              ADDS     r0,r0,#1              ;500
00090a  9007              STR      r0,[sp,#0x1c]         ;500
00090c  f1a90901          SUB      r9,r9,#1              ;501
000910  2012              MOVS     r0,#0x12              ;502
000912  7020              STRB     r0,[r4,#0]            ;502
000914  e1ae              B        |L1.3188|
                  |L1.2326|
000916  f89d0014          LDRB     r0,[sp,#0x14]         ;507
00091a  f0000020          AND      r0,r0,#0x20           ;507
00091e  b110              CBZ      r0,|L1.2342|
000920  200b              MOVS     r0,#0xb               ;509
000922  7020              STRB     r0,[r4,#0]            ;509
000924  e1a6              B        |L1.3188|
                  |L1.2342|
000926  f89d0014          LDRB     r0,[sp,#0x14]         ;514
00092a  f0000040          AND      r0,r0,#0x40           ;514
00092e  b128              CBZ      r0,|L1.2364|
000930  a032              ADR      r0,|L1.2556|
000932  f8c80018          STR      r0,[r8,#0x18]         ;515
000936  201b              MOVS     r0,#0x1b              ;516
000938  7020              STRB     r0,[r4,#0]            ;516
00093a  e19b              B        |L1.3188|
                  |L1.2364|
00093c  f89d0014          LDRB     r0,[sp,#0x14]         ;521
000940  f000000f          AND      r0,r0,#0xf            ;521
000944  64a0              STR      r0,[r4,#0x48]         ;521
000946  6ca0              LDR      r0,[r4,#0x48]         ;522
000948  b360              CBZ      r0,|L1.2468|
00094a  bf00              NOP                            ;523
00094c  e017              B        |L1.2430|
                  |L1.2382|
00094e  bf00              NOP                            ;523
000950  bf00              NOP                            ;523
000952  b94f              CBNZ     r7,|L1.2408|
000954  a908              ADD      r1,sp,#0x20           ;523
000956  980b              LDR      r0,[sp,#0x2c]         ;523
000958  47d0              BLX      r10                   ;523
00095a  4607              MOV      r7,r0                 ;523
00095c  b927              CBNZ     r7,|L1.2408|
00095e  2000              MOVS     r0,#0                 ;523
000960  9008              STR      r0,[sp,#0x20]         ;523
000962  1f40              SUBS     r0,r0,#5              ;523
000964  9002              STR      r0,[sp,#8]            ;523
000966  e187              B        |L1.3192|
                  |L1.2408|
000968  bf00              NOP                            ;523
00096a  1e7f              SUBS     r7,r7,#1              ;523
00096c  9808              LDR      r0,[sp,#0x20]         ;523
00096e  7800              LDRB     r0,[r0,#0]            ;523
000970  9908              LDR      r1,[sp,#0x20]         ;523
000972  1c49              ADDS     r1,r1,#1              ;523
000974  40a8              LSLS     r0,r0,r5              ;523
000976  4406              ADD      r6,r6,r0              ;523
000978  9108              STR      r1,[sp,#0x20]         ;523
00097a  3508              ADDS     r5,r5,#8              ;523
00097c  bf00              NOP                            ;523
                  |L1.2430|
00097e  6ca0              LDR      r0,[r4,#0x48]         ;523
000980  42a8              CMP      r0,r5                 ;523
000982  d8e4              BHI      |L1.2382|
000984  bf00              NOP                            ;523
000986  f8942048          LDRB     r2,[r4,#0x48]         ;524
00098a  2001              MOVS     r0,#1                 ;524
00098c  4090              LSLS     r0,r0,r2              ;524
00098e  1e40              SUBS     r0,r0,#1              ;524
000990  4030              ANDS     r0,r0,r6              ;524
000992  6c21              LDR      r1,[r4,#0x40]         ;524
000994  4408              ADD      r0,r0,r1              ;524
000996  6420              STR      r0,[r4,#0x40]         ;524
000998  bf00              NOP                            ;525
00099a  f8940048          LDRB     r0,[r4,#0x48]         ;525
00099e  40c6              LSRS     r6,r6,r0              ;525
0009a0  6ca0              LDR      r0,[r4,#0x48]         ;525
0009a2  e039              B        |L1.2584|
                  |L1.2468|
0009a4  e03a              B        |L1.2588|
                  |L1.2470|
0009a6  e161              B        |L1.3180|
                  |L1.2472|
0009a8  e14b              B        |L1.3138|
0009aa  0000              DCW      0x0000
                  |L1.2476|
0009ac  696e7661          DCB      "invalid bit length repeat",0
0009b0  6c696420
0009b4  62697420
0009b8  6c656e67
0009bc  74682072
0009c0  65706561
0009c4  7400    
0009c6  00                DCB      0
0009c7  00                DCB      0
                  |L1.2504|
0009c8  696e7661          DCB      "invalid literal/lengths set",0
0009cc  6c696420
0009d0  6c697465
0009d4  72616c2f
0009d8  6c656e67
0009dc  74687320
0009e0  73657400
                  |L1.2532|
0009e4  696e7661          DCB      "invalid distances set",0
0009e8  6c696420
0009ec  64697374
0009f0  616e6365
0009f4  73207365
0009f8  7400    
0009fa  00                DCB      0
0009fb  00                DCB      0
                  |L1.2556|
0009fc  696e7661          DCB      "invalid literal/length code",0
000a00  6c696420
000a04  6c697465
000a08  72616c2f
000a0c  6c656e67
000a10  74682063
000a14  6f646500
                  |L1.2584|
000a18  1a2d              SUBS     r5,r5,r0              ;525
000a1a  bf00              NOP                            ;525
                  |L1.2588|
000a1c  bf00              NOP                            ;530
                  |L1.2590|
000a1e  f8942058          LDRB     r2,[r4,#0x58]         ;531
000a22  2001              MOVS     r0,#1                 ;531
000a24  4090              LSLS     r0,r0,r2              ;531
000a26  1e40              SUBS     r0,r0,#1              ;531
000a28  4030              ANDS     r0,r0,r6              ;531
000a2a  6d21              LDR      r1,[r4,#0x50]         ;531
000a2c  eb010080          ADD      r0,r1,r0,LSL #2       ;531
000a30  6800              LDR      r0,[r0,#0]            ;531
000a32  9005              STR      r0,[sp,#0x14]         ;531
000a34  f89d0015          LDRB     r0,[sp,#0x15]         ;532
000a38  42a8              CMP      r0,r5                 ;532
000a3a  d800              BHI      |L1.2622|
000a3c  e017              B        |L1.2670|
                  |L1.2622|
000a3e  bf00              NOP                            ;533
000a40  bf00              NOP                            ;533
000a42  b94f              CBNZ     r7,|L1.2648|
000a44  a908              ADD      r1,sp,#0x20           ;533
000a46  980b              LDR      r0,[sp,#0x2c]         ;533
000a48  47d0              BLX      r10                   ;533
000a4a  4607              MOV      r7,r0                 ;533
000a4c  b927              CBNZ     r7,|L1.2648|
000a4e  2000              MOVS     r0,#0                 ;533
000a50  9008              STR      r0,[sp,#0x20]         ;533
000a52  1f40              SUBS     r0,r0,#5              ;533
000a54  9002              STR      r0,[sp,#8]            ;533
000a56  e10f              B        |L1.3192|
                  |L1.2648|
000a58  bf00              NOP                            ;533
000a5a  1e7f              SUBS     r7,r7,#1              ;533
000a5c  9808              LDR      r0,[sp,#0x20]         ;533
000a5e  7800              LDRB     r0,[r0,#0]            ;533
000a60  9908              LDR      r1,[sp,#0x20]         ;533
000a62  1c49              ADDS     r1,r1,#1              ;533
000a64  40a8              LSLS     r0,r0,r5              ;533
000a66  4406              ADD      r6,r6,r0              ;533
000a68  9108              STR      r1,[sp,#0x20]         ;533
000a6a  3508              ADDS     r5,r5,#8              ;533
000a6c  e7d7              B        |L1.2590|
                  |L1.2670|
000a6e  bf00              NOP                            ;532
000a70  f89d0014          LDRB     r0,[sp,#0x14]         ;535
000a74  f00000f0          AND      r0,r0,#0xf0           ;535
000a78  bbb0              CBNZ     r0,|L1.2792|
000a7a  9805              LDR      r0,[sp,#0x14]         ;536
000a7c  9004              STR      r0,[sp,#0x10]         ;536
000a7e  bf00              NOP                            ;537
                  |L1.2688|
000a80  f89d0011          LDRB     r0,[sp,#0x11]         ;538
000a84  f89d1010          LDRB     r1,[sp,#0x10]         ;538
000a88  4401              ADD      r1,r1,r0              ;538
000a8a  2001              MOVS     r0,#1                 ;538
000a8c  4088              LSLS     r0,r0,r1              ;538
000a8e  1e40              SUBS     r0,r0,#1              ;538
000a90  4030              ANDS     r0,r0,r6              ;538
000a92  f89d1011          LDRB     r1,[sp,#0x11]         ;538
000a96  40c8              LSRS     r0,r0,r1              ;538
000a98  f8bd1012          LDRH     r1,[sp,#0x12]         ;538
000a9c  4408              ADD      r0,r0,r1              ;538
000a9e  6d21              LDR      r1,[r4,#0x50]         ;538
000aa0  eb010080          ADD      r0,r1,r0,LSL #2       ;538
000aa4  6800              LDR      r0,[r0,#0]            ;538
000aa6  9005              STR      r0,[sp,#0x14]         ;538
000aa8  f89d0011          LDRB     r0,[sp,#0x11]         ;540
000aac  f89d1015          LDRB     r1,[sp,#0x15]         ;540
000ab0  4408              ADD      r0,r0,r1              ;540
000ab2  42a8              CMP      r0,r5                 ;540
000ab4  d800              BHI      |L1.2744|
000ab6  e018              B        |L1.2794|
                  |L1.2744|
000ab8  bf00              NOP                            ;541
000aba  bf00              NOP                            ;541
000abc  b94f              CBNZ     r7,|L1.2770|
000abe  a908              ADD      r1,sp,#0x20           ;541
000ac0  980b              LDR      r0,[sp,#0x2c]         ;541
000ac2  47d0              BLX      r10                   ;541
000ac4  4607              MOV      r7,r0                 ;541
000ac6  b927              CBNZ     r7,|L1.2770|
000ac8  2000              MOVS     r0,#0                 ;541
000aca  9008              STR      r0,[sp,#0x20]         ;541
000acc  1f40              SUBS     r0,r0,#5              ;541
000ace  9002              STR      r0,[sp,#8]            ;541
000ad0  e0d2              B        |L1.3192|
                  |L1.2770|
000ad2  bf00              NOP                            ;541
000ad4  1e7f              SUBS     r7,r7,#1              ;541
000ad6  9808              LDR      r0,[sp,#0x20]         ;541
000ad8  7800              LDRB     r0,[r0,#0]            ;541
000ada  9908              LDR      r1,[sp,#0x20]         ;541
000adc  1c49              ADDS     r1,r1,#1              ;541
000ade  40a8              LSLS     r0,r0,r5              ;541
000ae0  4406              ADD      r6,r6,r0              ;541
000ae2  9108              STR      r1,[sp,#0x20]         ;541
000ae4  3508              ADDS     r5,r5,#8              ;541
000ae6  e7cb              B        |L1.2688|
                  |L1.2792|
000ae8  e008              B        |L1.2812|
                  |L1.2794|
000aea  bf00              NOP                            ;540
000aec  bf00              NOP                            ;543
000aee  f89d0011          LDRB     r0,[sp,#0x11]         ;543
000af2  40c6              LSRS     r6,r6,r0              ;543
000af4  f89d0011          LDRB     r0,[sp,#0x11]         ;543
000af8  1a2d              SUBS     r5,r5,r0              ;543
000afa  bf00              NOP                            ;543
                  |L1.2812|
000afc  bf00              NOP                            ;545
000afe  f89d0015          LDRB     r0,[sp,#0x15]         ;545
000b02  40c6              LSRS     r6,r6,r0              ;545
000b04  f89d0015          LDRB     r0,[sp,#0x15]         ;545
000b08  1a2d              SUBS     r5,r5,r0              ;545
000b0a  bf00              NOP                            ;545
000b0c  f89d0014          LDRB     r0,[sp,#0x14]         ;546
000b10  f0000040          AND      r0,r0,#0x40           ;546
000b14  b128              CBZ      r0,|L1.2850|
000b16  a065              ADR      r0,|L1.3244|
000b18  f8c80018          STR      r0,[r8,#0x18]         ;547
000b1c  201b              MOVS     r0,#0x1b              ;548
000b1e  7020              STRB     r0,[r4,#0]            ;548
000b20  e0a8              B        |L1.3188|
                  |L1.2850|
000b22  f8bd0016          LDRH     r0,[sp,#0x16]         ;551
000b26  6460              STR      r0,[r4,#0x44]         ;551
000b28  f89d0014          LDRB     r0,[sp,#0x14]         ;554
000b2c  f000000f          AND      r0,r0,#0xf            ;554
000b30  64a0              STR      r0,[r4,#0x48]         ;554
000b32  6ca0              LDR      r0,[r4,#0x48]         ;555
000b34  b368              CBZ      r0,|L1.2962|
000b36  bf00              NOP                            ;556
000b38  e017              B        |L1.2922|
                  |L1.2874|
000b3a  bf00              NOP                            ;556
000b3c  bf00              NOP                            ;556
000b3e  b94f              CBNZ     r7,|L1.2900|
000b40  a908              ADD      r1,sp,#0x20           ;556
000b42  980b              LDR      r0,[sp,#0x2c]         ;556
000b44  47d0              BLX      r10                   ;556
000b46  4607              MOV      r7,r0                 ;556
000b48  b927              CBNZ     r7,|L1.2900|
000b4a  2000              MOVS     r0,#0                 ;556
000b4c  9008              STR      r0,[sp,#0x20]         ;556
000b4e  1f40              SUBS     r0,r0,#5              ;556
000b50  9002              STR      r0,[sp,#8]            ;556
000b52  e091              B        |L1.3192|
                  |L1.2900|
000b54  bf00              NOP                            ;556
000b56  1e7f              SUBS     r7,r7,#1              ;556
000b58  9808              LDR      r0,[sp,#0x20]         ;556
000b5a  7800              LDRB     r0,[r0,#0]            ;556
000b5c  9908              LDR      r1,[sp,#0x20]         ;556
000b5e  1c49              ADDS     r1,r1,#1              ;556
000b60  40a8              LSLS     r0,r0,r5              ;556
000b62  4406              ADD      r6,r6,r0              ;556
000b64  9108              STR      r1,[sp,#0x20]         ;556
000b66  3508              ADDS     r5,r5,#8              ;556
000b68  bf00              NOP                            ;556
                  |L1.2922|
000b6a  6ca0              LDR      r0,[r4,#0x48]         ;556
000b6c  42a8              CMP      r0,r5                 ;556
000b6e  d8e4              BHI      |L1.2874|
000b70  bf00              NOP                            ;556
000b72  f8942048          LDRB     r2,[r4,#0x48]         ;557
000b76  2001              MOVS     r0,#1                 ;557
000b78  4090              LSLS     r0,r0,r2              ;557
000b7a  1e40              SUBS     r0,r0,#1              ;557
000b7c  4030              ANDS     r0,r0,r6              ;557
000b7e  6c61              LDR      r1,[r4,#0x44]         ;557
000b80  4408              ADD      r0,r0,r1              ;557
000b82  6460              STR      r0,[r4,#0x44]         ;557
000b84  bf00              NOP                            ;558
000b86  f8940048          LDRB     r0,[r4,#0x48]         ;558
000b8a  40c6              LSRS     r6,r6,r0              ;558
000b8c  6ca0              LDR      r0,[r4,#0x48]         ;558
000b8e  1a2d              SUBS     r5,r5,r0              ;558
000b90  bf00              NOP                            ;558
                  |L1.2962|
000b92  e9d4100a          LDRD     r1,r0,[r4,#0x28]      ;560
000b96  4288              CMP      r0,r1                 ;560
000b98  d201              BCS      |L1.2974|
000b9a  4648              MOV      r0,r9                 ;561
000b9c  e000              B        |L1.2976|
                  |L1.2974|
000b9e  2000              MOVS     r0,#0                 ;561
                  |L1.2976|
000ba0  6aa1              LDR      r1,[r4,#0x28]         ;561
000ba2  1a08              SUBS     r0,r1,r0              ;561
000ba4  6c61              LDR      r1,[r4,#0x44]         ;561
000ba6  4288              CMP      r0,r1                 ;561
000ba8  d205              BCS      |L1.2998|
000baa  a046              ADR      r0,|L1.3268|
000bac  f8c80018          STR      r0,[r8,#0x18]         ;562
000bb0  201b              MOVS     r0,#0x1b              ;563
000bb2  7020              STRB     r0,[r4,#0]            ;563
000bb4  e05e              B        |L1.3188|
                  |L1.2998|
000bb6  bf00              NOP                            ;569
                  |L1.3000|
000bb8  bf00              NOP                            ;570
000bba  f1b90f00          CMP      r9,#0                 ;570
000bbe  d10f              BNE      |L1.3040|
000bc0  6b60              LDR      r0,[r4,#0x34]         ;570
000bc2  9007              STR      r0,[sp,#0x1c]         ;570
000bc4  f8d49028          LDR      r9,[r4,#0x28]         ;570
000bc8  f8c4902c          STR      r9,[r4,#0x2c]         ;570
000bcc  464a              MOV      r2,r9                 ;570
000bce  9b0c              LDR      r3,[sp,#0x30]         ;570
000bd0  9907              LDR      r1,[sp,#0x1c]         ;570
000bd2  9816              LDR      r0,[sp,#0x58]         ;570
000bd4  4798              BLX      r3                    ;570
000bd6  b118              CBZ      r0,|L1.3040|
000bd8  f06f0004          MVN      r0,#4                 ;570
000bdc  9002              STR      r0,[sp,#8]            ;570
000bde  e04b              B        |L1.3192|
                  |L1.3040|
000be0  bf00              NOP                            ;570
000be2  6c61              LDR      r1,[r4,#0x44]         ;571
000be4  6aa0              LDR      r0,[r4,#0x28]         ;571
000be6  eba00b01          SUB      r11,r0,r1             ;571
000bea  45cb              CMP      r11,r9                ;572
000bec  d205              BCS      |L1.3066|
000bee  9807              LDR      r0,[sp,#0x1c]         ;573
000bf0  4458              ADD      r0,r0,r11             ;573
000bf2  9006              STR      r0,[sp,#0x18]         ;573
000bf4  eba90b0b          SUB      r11,r9,r11            ;574
000bf8  e004              B        |L1.3076|
                  |L1.3066|
000bfa  6c61              LDR      r1,[r4,#0x44]         ;577
000bfc  9807              LDR      r0,[sp,#0x1c]         ;577
000bfe  1a40              SUBS     r0,r0,r1              ;577
000c00  9006              STR      r0,[sp,#0x18]         ;577
000c02  46cb              MOV      r11,r9                ;578
                  |L1.3076|
000c04  6c20              LDR      r0,[r4,#0x40]         ;580
000c06  4558              CMP      r0,r11                ;580
000c08  d201              BCS      |L1.3086|
000c0a  f8d4b040          LDR      r11,[r4,#0x40]        ;580
                  |L1.3086|
000c0e  6c20              LDR      r0,[r4,#0x40]         ;581
000c10  eba0000b          SUB      r0,r0,r11             ;581
000c14  6420              STR      r0,[r4,#0x40]         ;581
000c16  eba9090b          SUB      r9,r9,r11             ;582
000c1a  bf00              NOP                            ;583
                  |L1.3100|
000c1c  9806              LDR      r0,[sp,#0x18]         ;584
000c1e  7801              LDRB     r1,[r0,#0]            ;584
000c20  9807              LDR      r0,[sp,#0x1c]         ;584
000c22  7001              STRB     r1,[r0,#0]            ;584
000c24  9806              LDR      r0,[sp,#0x18]         ;584
000c26  1c40              ADDS     r0,r0,#1              ;584
000c28  9006              STR      r0,[sp,#0x18]         ;584
000c2a  9807              LDR      r0,[sp,#0x1c]         ;584
000c2c  1c40              ADDS     r0,r0,#1              ;584
000c2e  9007              STR      r0,[sp,#0x1c]         ;584
000c30  f1ab0001          SUB      r0,r11,#1             ;585
000c34  ea5f0b00          MOVS     r11,r0                ;585
000c38  d1f0              BNE      |L1.3100|
000c3a  6c20              LDR      r0,[r4,#0x40]         ;586
000c3c  2800              CMP      r0,#0                 ;586
000c3e  d1bb              BNE      |L1.3000|
000c40  e018              B        |L1.3188|
                  |L1.3138|
000c42  2001              MOVS     r0,#1                 ;591
000c44  9002              STR      r0,[sp,#8]            ;591
000c46  6aa0              LDR      r0,[r4,#0x28]         ;592
000c48  4548              CMP      r0,r9                 ;592
000c4a  d90a              BLS      |L1.3170|
000c4c  6aa0              LDR      r0,[r4,#0x28]         ;593
000c4e  eba00209          SUB      r2,r0,r9              ;593
000c52  6b61              LDR      r1,[r4,#0x34]         ;593
000c54  9b0c              LDR      r3,[sp,#0x30]         ;593
000c56  9816              LDR      r0,[sp,#0x58]         ;593
000c58  4798              BLX      r3                    ;593
000c5a  b110              CBZ      r0,|L1.3170|
000c5c  f06f0004          MVN      r0,#4                 ;594
000c60  9002              STR      r0,[sp,#8]            ;594
                  |L1.3170|
000c62  e009              B        |L1.3192|
                  |L1.3172|
000c64  f06f0002          MVN      r0,#2                 ;599
000c68  9002              STR      r0,[sp,#8]            ;599
000c6a  e005              B        |L1.3192|
                  |L1.3180|
000c6c  f06f0001          MVN      r0,#1                 ;603
000c70  9002              STR      r0,[sp,#8]            ;603
000c72  e001              B        |L1.3192|
                  |L1.3188|
000c74  f7ffba3e          B        |L1.244|
                  |L1.3192|
000c78  9808              LDR      r0,[sp,#0x20]         ;609
000c7a  f8c80000          STR      r0,[r8,#0]            ;609
000c7e  f8c87004          STR      r7,[r8,#4]            ;610
000c82  9802              LDR      r0,[sp,#8]            ;611
000c84  f7ffba18          B        |L1.184|
;;;613    
                          ENDP

                  inflateBackEnd PROC
;;;614    int ZEXPORT inflateBackEnd(strm)
000c88  b510              PUSH     {r4,lr}
;;;615    z_streamp strm;
;;;616    {
000c8a  4604              MOV      r4,r0
;;;617        if (strm == Z_NULL || strm->state == Z_NULL || strm->zfree == (free_func)0)
000c8c  b11c              CBZ      r4,|L1.3222|
000c8e  69e0              LDR      r0,[r4,#0x1c]
000c90  b108              CBZ      r0,|L1.3222|
000c92  6a60              LDR      r0,[r4,#0x24]
000c94  b910              CBNZ     r0,|L1.3228|
                  |L1.3222|
;;;618            return Z_STREAM_ERROR;
000c96  f06f0001          MVN      r0,#1
                  |L1.3226|
;;;619        ZFREE(strm, strm->state);
;;;620        strm->state = Z_NULL;
;;;621        Tracev((stderr, "inflate: end\n"));
;;;622        return Z_OK;
;;;623    }
000c9a  bd10              POP      {r4,pc}
                  |L1.3228|
000c9c  e9d42009          LDRD     r2,r0,[r4,#0x24]      ;619
000ca0  69e1              LDR      r1,[r4,#0x1c]         ;619
000ca2  4790              BLX      r2                    ;619
000ca4  2000              MOVS     r0,#0                 ;620
000ca6  61e0              STR      r0,[r4,#0x1c]         ;620
000ca8  bf00              NOP                            ;622
000caa  e7f6              B        |L1.3226|
                          ENDP

                  |L1.3244|
000cac  696e7661          DCB      "invalid distance code",0
000cb0  6c696420
000cb4  64697374
000cb8  616e6365
000cbc  20636f64
000cc0  6500    
000cc2  00                DCB      0
000cc3  00                DCB      0
                  |L1.3268|
000cc4  696e7661          DCB      "invalid distance too far back",0
000cc8  6c696420
000ccc  64697374
000cd0  616e6365
000cd4  20746f6f
000cd8  20666172
000cdc  20626163
000ce0  6b00    
000ce2  00                DCB      0
000ce3  00                DCB      0

                          AREA ||.constdata||, DATA, READONLY, ALIGN=1

                  lenfix
000000  6007              DCB      0x60,0x07
000002  0000              DCW      0x0000
000004  0008              DCB      0x00,0x08
000006  0050              DCW      0x0050
000008  0008              DCB      0x00,0x08
00000a  0010              DCW      0x0010
00000c  1408              DCB      0x14,0x08
00000e  0073              DCW      0x0073
000010  1207              DCB      0x12,0x07
000012  001f              DCW      0x001f
000014  0008              DCB      0x00,0x08
000016  0070              DCW      0x0070
000018  0008              DCB      0x00,0x08
00001a  0030              DCW      0x0030
00001c  0009              DCB      0x00,0x09
00001e  00c0              DCW      0x00c0
000020  1007              DCB      0x10,0x07
000022  000a              DCW      0x000a
000024  0008              DCB      0x00,0x08
000026  0060              DCW      0x0060
000028  0008              DCB      0x00,0x08
00002a  0020              DCW      0x0020
00002c  0009              DCB      0x00,0x09
00002e  00a0              DCW      0x00a0
000030  0008              DCB      0x00,0x08
000032  0000              DCW      0x0000
000034  0008              DCB      0x00,0x08
000036  0080              DCW      0x0080
000038  0008              DCB      0x00,0x08
00003a  0040              DCW      0x0040
00003c  0009              DCB      0x00,0x09
00003e  00e0              DCW      0x00e0
000040  1007              DCB      0x10,0x07
000042  0006              DCW      0x0006
000044  0008              DCB      0x00,0x08
000046  0058              DCW      0x0058
000048  0008              DCB      0x00,0x08
00004a  0018              DCW      0x0018
00004c  0009              DCB      0x00,0x09
00004e  0090              DCW      0x0090
000050  1307              DCB      0x13,0x07
000052  003b              DCW      0x003b
000054  0008              DCB      0x00,0x08
000056  0078              DCW      0x0078
000058  0008              DCB      0x00,0x08
00005a  0038              DCW      0x0038
00005c  0009              DCB      0x00,0x09
00005e  00d0              DCW      0x00d0
000060  1107              DCB      0x11,0x07
000062  0011              DCW      0x0011
000064  0008              DCB      0x00,0x08
000066  0068              DCW      0x0068
000068  0008              DCB      0x00,0x08
00006a  0028              DCW      0x0028
00006c  0009              DCB      0x00,0x09
00006e  00b0              DCW      0x00b0
000070  0008              DCB      0x00,0x08
000072  0008              DCW      0x0008
000074  0008              DCB      0x00,0x08
000076  0088              DCW      0x0088
000078  0008              DCB      0x00,0x08
00007a  0048              DCW      0x0048
00007c  0009              DCB      0x00,0x09
00007e  00f0              DCW      0x00f0
000080  1007              DCB      0x10,0x07
000082  0004              DCW      0x0004
000084  0008              DCB      0x00,0x08
000086  0054              DCW      0x0054
000088  0008              DCB      0x00,0x08
00008a  0014              DCW      0x0014
00008c  1508              DCB      0x15,0x08
00008e  00e3              DCW      0x00e3
000090  1307              DCB      0x13,0x07
000092  002b              DCW      0x002b
000094  0008              DCB      0x00,0x08
000096  0074              DCW      0x0074
000098  0008              DCB      0x00,0x08
00009a  0034              DCW      0x0034
00009c  0009              DCB      0x00,0x09
00009e  00c8              DCW      0x00c8
0000a0  1107              DCB      0x11,0x07
0000a2  000d              DCW      0x000d
0000a4  0008              DCB      0x00,0x08
0000a6  0064              DCW      0x0064
0000a8  0008              DCB      0x00,0x08
0000aa  0024              DCW      0x0024
0000ac  0009              DCB      0x00,0x09
0000ae  00a8              DCW      0x00a8
0000b0  0008              DCB      0x00,0x08
0000b2  0004              DCW      0x0004
0000b4  0008              DCB      0x00,0x08
0000b6  0084              DCW      0x0084
0000b8  0008              DCB      0x00,0x08
0000ba  0044              DCW      0x0044
0000bc  0009              DCB      0x00,0x09
0000be  00e8              DCW      0x00e8
0000c0  1007              DCB      0x10,0x07
0000c2  0008              DCW      0x0008
0000c4  0008              DCB      0x00,0x08
0000c6  005c              DCW      0x005c
0000c8  0008              DCB      0x00,0x08
0000ca  001c              DCW      0x001c
0000cc  0009              DCB      0x00,0x09
0000ce  0098              DCW      0x0098
0000d0  1407              DCB      0x14,0x07
0000d2  0053              DCW      0x0053
0000d4  0008              DCB      0x00,0x08
0000d6  007c              DCW      0x007c
0000d8  0008              DCB      0x00,0x08
0000da  003c              DCW      0x003c
0000dc  0009              DCB      0x00,0x09
0000de  00d8              DCW      0x00d8
0000e0  1207              DCB      0x12,0x07
0000e2  0017              DCW      0x0017
0000e4  0008              DCB      0x00,0x08
0000e6  006c              DCW      0x006c
0000e8  0008              DCB      0x00,0x08
0000ea  002c              DCW      0x002c
0000ec  0009              DCB      0x00,0x09
0000ee  00b8              DCW      0x00b8
0000f0  0008              DCB      0x00,0x08
0000f2  000c              DCW      0x000c
0000f4  0008              DCB      0x00,0x08
0000f6  008c              DCW      0x008c
0000f8  0008              DCB      0x00,0x08
0000fa  004c              DCW      0x004c
0000fc  0009              DCB      0x00,0x09
0000fe  00f8              DCW      0x00f8
000100  1007              DCB      0x10,0x07
000102  0003              DCW      0x0003
000104  0008              DCB      0x00,0x08
000106  0052              DCW      0x0052
000108  0008              DCB      0x00,0x08
00010a  0012              DCW      0x0012
00010c  1508              DCB      0x15,0x08
00010e  00a3              DCW      0x00a3
000110  1307              DCB      0x13,0x07
000112  0023              DCW      0x0023
000114  0008              DCB      0x00,0x08
000116  0072              DCW      0x0072
000118  0008              DCB      0x00,0x08
00011a  0032              DCW      0x0032
00011c  0009              DCB      0x00,0x09
00011e  00c4              DCW      0x00c4
000120  1107              DCB      0x11,0x07
000122  000b              DCW      0x000b
000124  0008              DCB      0x00,0x08
000126  0062              DCW      0x0062
000128  0008              DCB      0x00,0x08
00012a  0022              DCW      0x0022
00012c  0009              DCB      0x00,0x09
00012e  00a4              DCW      0x00a4
000130  0008              DCB      0x00,0x08
000132  0002              DCW      0x0002
000134  0008              DCB      0x00,0x08
000136  0082              DCW      0x0082
000138  0008              DCB      0x00,0x08
00013a  0042              DCW      0x0042
00013c  0009              DCB      0x00,0x09
00013e  00e4              DCW      0x00e4
000140  1007              DCB      0x10,0x07
000142  0007              DCW      0x0007
000144  0008              DCB      0x00,0x08
000146  005a              DCW      0x005a
000148  0008              DCB      0x00,0x08
00014a  001a              DCW      0x001a
00014c  0009              DCB      0x00,0x09
00014e  0094              DCW      0x0094
000150  1407              DCB      0x14,0x07
000152  0043              DCW      0x0043
000154  0008              DCB      0x00,0x08
000156  007a              DCW      0x007a
000158  0008              DCB      0x00,0x08
00015a  003a              DCW      0x003a
00015c  0009              DCB      0x00,0x09
00015e  00d4              DCW      0x00d4
000160  1207              DCB      0x12,0x07
000162  0013              DCW      0x0013
000164  0008              DCB      0x00,0x08
000166  006a              DCW      0x006a
000168  0008              DCB      0x00,0x08
00016a  002a              DCW      0x002a
00016c  0009              DCB      0x00,0x09
00016e  00b4              DCW      0x00b4
000170  0008              DCB      0x00,0x08
000172  000a              DCW      0x000a
000174  0008              DCB      0x00,0x08
000176  008a              DCW      0x008a
000178  0008              DCB      0x00,0x08
00017a  004a              DCW      0x004a
00017c  0009              DCB      0x00,0x09
00017e  00f4              DCW      0x00f4
000180  1007              DCB      0x10,0x07
000182  0005              DCW      0x0005
000184  0008              DCB      0x00,0x08
000186  0056              DCW      0x0056
000188  0008              DCB      0x00,0x08
00018a  0016              DCW      0x0016
00018c  4008              DCB      0x40,0x08
00018e  0000              DCW      0x0000
000190  1307              DCB      0x13,0x07
000192  0033              DCW      0x0033
000194  0008              DCB      0x00,0x08
000196  0076              DCW      0x0076
000198  0008              DCB      0x00,0x08
00019a  0036              DCW      0x0036
00019c  0009              DCB      0x00,0x09
00019e  00cc              DCW      0x00cc
0001a0  1107              DCB      0x11,0x07
0001a2  000f              DCW      0x000f
0001a4  0008              DCB      0x00,0x08
0001a6  0066              DCW      0x0066
0001a8  0008              DCB      0x00,0x08
0001aa  0026              DCW      0x0026
0001ac  0009              DCB      0x00,0x09
0001ae  00ac              DCW      0x00ac
0001b0  0008              DCB      0x00,0x08
0001b2  0006              DCW      0x0006
0001b4  0008              DCB      0x00,0x08
0001b6  0086              DCW      0x0086
0001b8  0008              DCB      0x00,0x08
0001ba  0046              DCW      0x0046
0001bc  0009              DCB      0x00,0x09
0001be  00ec              DCW      0x00ec
0001c0  1007              DCB      0x10,0x07
0001c2  0009              DCW      0x0009
0001c4  0008              DCB      0x00,0x08
0001c6  005e              DCW      0x005e
0001c8  0008              DCB      0x00,0x08
0001ca  001e              DCW      0x001e
0001cc  0009              DCB      0x00,0x09
0001ce  009c              DCW      0x009c
0001d0  1407              DCB      0x14,0x07
0001d2  0063              DCW      0x0063
0001d4  0008              DCB      0x00,0x08
0001d6  007e              DCW      0x007e
0001d8  0008              DCB      0x00,0x08
0001da  003e              DCW      0x003e
0001dc  0009              DCB      0x00,0x09
0001de  00dc              DCW      0x00dc
0001e0  1207              DCB      0x12,0x07
0001e2  001b              DCW      0x001b
0001e4  0008              DCB      0x00,0x08
0001e6  006e              DCW      0x006e
0001e8  0008              DCB      0x00,0x08
0001ea  002e              DCW      0x002e
0001ec  0009              DCB      0x00,0x09
0001ee  00bc              DCW      0x00bc
0001f0  0008              DCB      0x00,0x08
0001f2  000e              DCW      0x000e
0001f4  0008              DCB      0x00,0x08
0001f6  008e              DCW      0x008e
0001f8  0008              DCB      0x00,0x08
0001fa  004e              DCW      0x004e
0001fc  0009              DCB      0x00,0x09
0001fe  00fc              DCW      0x00fc
000200  6007              DCB      0x60,0x07
000202  0000              DCW      0x0000
000204  0008              DCB      0x00,0x08
000206  0051              DCW      0x0051
000208  0008              DCB      0x00,0x08
00020a  0011              DCW      0x0011
00020c  1508              DCB      0x15,0x08
00020e  0083              DCW      0x0083
000210  1207              DCB      0x12,0x07
000212  001f              DCW      0x001f
000214  0008              DCB      0x00,0x08
000216  0071              DCW      0x0071
000218  0008              DCB      0x00,0x08
00021a  0031              DCW      0x0031
00021c  0009              DCB      0x00,0x09
00021e  00c2              DCW      0x00c2
000220  1007              DCB      0x10,0x07
000222  000a              DCW      0x000a
000224  0008              DCB      0x00,0x08
000226  0061              DCW      0x0061
000228  0008              DCB      0x00,0x08
00022a  0021              DCW      0x0021
00022c  0009              DCB      0x00,0x09
00022e  00a2              DCW      0x00a2
000230  0008              DCB      0x00,0x08
000232  0001              DCW      0x0001
000234  0008              DCB      0x00,0x08
000236  0081              DCW      0x0081
000238  0008              DCB      0x00,0x08
00023a  0041              DCW      0x0041
00023c  0009              DCB      0x00,0x09
00023e  00e2              DCW      0x00e2
000240  1007              DCB      0x10,0x07
000242  0006              DCW      0x0006
000244  0008              DCB      0x00,0x08
000246  0059              DCW      0x0059
000248  0008              DCB      0x00,0x08
00024a  0019              DCW      0x0019
00024c  0009              DCB      0x00,0x09
00024e  0092              DCW      0x0092
000250  1307              DCB      0x13,0x07
000252  003b              DCW      0x003b
000254  0008              DCB      0x00,0x08
000256  0079              DCW      0x0079
000258  0008              DCB      0x00,0x08
00025a  0039              DCW      0x0039
00025c  0009              DCB      0x00,0x09
00025e  00d2              DCW      0x00d2
000260  1107              DCB      0x11,0x07
000262  0011              DCW      0x0011
000264  0008              DCB      0x00,0x08
000266  0069              DCW      0x0069
000268  0008              DCB      0x00,0x08
00026a  0029              DCW      0x0029
00026c  0009              DCB      0x00,0x09
00026e  00b2              DCW      0x00b2
000270  0008              DCB      0x00,0x08
000272  0009              DCW      0x0009
000274  0008              DCB      0x00,0x08
000276  0089              DCW      0x0089
000278  0008              DCB      0x00,0x08
00027a  0049              DCW      0x0049
00027c  0009              DCB      0x00,0x09
00027e  00f2              DCW      0x00f2
000280  1007              DCB      0x10,0x07
000282  0004              DCW      0x0004
000284  0008              DCB      0x00,0x08
000286  0055              DCW      0x0055
000288  0008              DCB      0x00,0x08
00028a  0015              DCW      0x0015
00028c  1008              DCB      0x10,0x08
00028e  0102              DCW      0x0102
000290  1307              DCB      0x13,0x07
000292  002b              DCW      0x002b
000294  0008              DCB      0x00,0x08
000296  0075              DCW      0x0075
000298  0008              DCB      0x00,0x08
00029a  0035              DCW      0x0035
00029c  0009              DCB      0x00,0x09
00029e  00ca              DCW      0x00ca
0002a0  1107              DCB      0x11,0x07
0002a2  000d              DCW      0x000d
0002a4  0008              DCB      0x00,0x08
0002a6  0065              DCW      0x0065
0002a8  0008              DCB      0x00,0x08
0002aa  0025              DCW      0x0025
0002ac  0009              DCB      0x00,0x09
0002ae  00aa              DCW      0x00aa
0002b0  0008              DCB      0x00,0x08
0002b2  0005              DCW      0x0005
0002b4  0008              DCB      0x00,0x08
0002b6  0085              DCW      0x0085
0002b8  0008              DCB      0x00,0x08
0002ba  0045              DCW      0x0045
0002bc  0009              DCB      0x00,0x09
0002be  00ea              DCW      0x00ea
0002c0  1007              DCB      0x10,0x07
0002c2  0008              DCW      0x0008
0002c4  0008              DCB      0x00,0x08
0002c6  005d              DCW      0x005d
0002c8  0008              DCB      0x00,0x08
0002ca  001d              DCW      0x001d
0002cc  0009              DCB      0x00,0x09
0002ce  009a              DCW      0x009a
0002d0  1407              DCB      0x14,0x07
0002d2  0053              DCW      0x0053
0002d4  0008              DCB      0x00,0x08
0002d6  007d              DCW      0x007d
0002d8  0008              DCB      0x00,0x08
0002da  003d              DCW      0x003d
0002dc  0009              DCB      0x00,0x09
0002de  00da              DCW      0x00da
0002e0  1207              DCB      0x12,0x07
0002e2  0017              DCW      0x0017
0002e4  0008              DCB      0x00,0x08
0002e6  006d              DCW      0x006d
0002e8  0008              DCB      0x00,0x08
0002ea  002d              DCW      0x002d
0002ec  0009              DCB      0x00,0x09
0002ee  00ba              DCW      0x00ba
0002f0  0008              DCB      0x00,0x08
0002f2  000d              DCW      0x000d
0002f4  0008              DCB      0x00,0x08
0002f6  008d              DCW      0x008d
0002f8  0008              DCB      0x00,0x08
0002fa  004d              DCW      0x004d
0002fc  0009              DCB      0x00,0x09
0002fe  00fa              DCW      0x00fa
000300  1007              DCB      0x10,0x07
000302  0003              DCW      0x0003
000304  0008              DCB      0x00,0x08
000306  0053              DCW      0x0053
000308  0008              DCB      0x00,0x08
00030a  0013              DCW      0x0013
00030c  1508              DCB      0x15,0x08
00030e  00c3              DCW      0x00c3
000310  1307              DCB      0x13,0x07
000312  0023              DCW      0x0023
000314  0008              DCB      0x00,0x08
000316  0073              DCW      0x0073
000318  0008              DCB      0x00,0x08
00031a  0033              DCW      0x0033
00031c  0009              DCB      0x00,0x09
00031e  00c6              DCW      0x00c6
000320  1107              DCB      0x11,0x07
000322  000b              DCW      0x000b
000324  0008              DCB      0x00,0x08
000326  0063              DCW      0x0063
000328  0008              DCB      0x00,0x08
00032a  0023              DCW      0x0023
00032c  0009              DCB      0x00,0x09
00032e  00a6              DCW      0x00a6
000330  0008              DCB      0x00,0x08
000332  0003              DCW      0x0003
000334  0008              DCB      0x00,0x08
000336  0083              DCW      0x0083
000338  0008              DCB      0x00,0x08
00033a  0043              DCW      0x0043
00033c  0009              DCB      0x00,0x09
00033e  00e6              DCW      0x00e6
000340  1007              DCB      0x10,0x07
000342  0007              DCW      0x0007
000344  0008              DCB      0x00,0x08
000346  005b              DCW      0x005b
000348  0008              DCB      0x00,0x08
00034a  001b              DCW      0x001b
00034c  0009              DCB      0x00,0x09
00034e  0096              DCW      0x0096
000350  1407              DCB      0x14,0x07
000352  0043              DCW      0x0043
000354  0008              DCB      0x00,0x08
000356  007b              DCW      0x007b
000358  0008              DCB      0x00,0x08
00035a  003b              DCW      0x003b
00035c  0009              DCB      0x00,0x09
00035e  00d6              DCW      0x00d6
000360  1207              DCB      0x12,0x07
000362  0013              DCW      0x0013
000364  0008              DCB      0x00,0x08
000366  006b              DCW      0x006b
000368  0008              DCB      0x00,0x08
00036a  002b              DCW      0x002b
00036c  0009              DCB      0x00,0x09
00036e  00b6              DCW      0x00b6
000370  0008              DCB      0x00,0x08
000372  000b              DCW      0x000b
000374  0008              DCB      0x00,0x08
000376  008b              DCW      0x008b
000378  0008              DCB      0x00,0x08
00037a  004b              DCW      0x004b
00037c  0009              DCB      0x00,0x09
00037e  00f6              DCW      0x00f6
000380  1007              DCB      0x10,0x07
000382  0005              DCW      0x0005
000384  0008              DCB      0x00,0x08
000386  0057              DCW      0x0057
000388  0008              DCB      0x00,0x08
00038a  0017              DCW      0x0017
00038c  4008              DCB      0x40,0x08
00038e  0000              DCW      0x0000
000390  1307              DCB      0x13,0x07
000392  0033              DCW      0x0033
000394  0008              DCB      0x00,0x08
000396  0077              DCW      0x0077
000398  0008              DCB      0x00,0x08
00039a  0037              DCW      0x0037
00039c  0009              DCB      0x00,0x09
00039e  00ce              DCW      0x00ce
0003a0  1107              DCB      0x11,0x07
0003a2  000f              DCW      0x000f
0003a4  0008              DCB      0x00,0x08
0003a6  0067              DCW      0x0067
0003a8  0008              DCB      0x00,0x08
0003aa  0027              DCW      0x0027
0003ac  0009              DCB      0x00,0x09
0003ae  00ae              DCW      0x00ae
0003b0  0008              DCB      0x00,0x08
0003b2  0007              DCW      0x0007
0003b4  0008              DCB      0x00,0x08
0003b6  0087              DCW      0x0087
0003b8  0008              DCB      0x00,0x08
0003ba  0047              DCW      0x0047
0003bc  0009              DCB      0x00,0x09
0003be  00ee              DCW      0x00ee
0003c0  1007              DCB      0x10,0x07
0003c2  0009              DCW      0x0009
0003c4  0008              DCB      0x00,0x08
0003c6  005f              DCW      0x005f
0003c8  0008              DCB      0x00,0x08
0003ca  001f              DCW      0x001f
0003cc  0009              DCB      0x00,0x09
0003ce  009e              DCW      0x009e
0003d0  1407              DCB      0x14,0x07
0003d2  0063              DCW      0x0063
0003d4  0008              DCB      0x00,0x08
0003d6  007f              DCW      0x007f
0003d8  0008              DCB      0x00,0x08
0003da  003f              DCW      0x003f
0003dc  0009              DCB      0x00,0x09
0003de  00de              DCW      0x00de
0003e0  1207              DCB      0x12,0x07
0003e2  001b              DCW      0x001b
0003e4  0008              DCB      0x00,0x08
0003e6  006f              DCW      0x006f
0003e8  0008              DCB      0x00,0x08
0003ea  002f              DCW      0x002f
0003ec  0009              DCB      0x00,0x09
0003ee  00be              DCW      0x00be
0003f0  0008              DCB      0x00,0x08
0003f2  000f              DCW      0x000f
0003f4  0008              DCB      0x00,0x08
0003f6  008f              DCW      0x008f
0003f8  0008              DCB      0x00,0x08
0003fa  004f              DCW      0x004f
0003fc  0009              DCB      0x00,0x09
0003fe  00fe              DCW      0x00fe
000400  6007              DCB      0x60,0x07
000402  0000              DCW      0x0000
000404  0008              DCB      0x00,0x08
000406  0050              DCW      0x0050
000408  0008              DCB      0x00,0x08
00040a  0010              DCW      0x0010
00040c  1408              DCB      0x14,0x08
00040e  0073              DCW      0x0073
000410  1207              DCB      0x12,0x07
000412  001f              DCW      0x001f
000414  0008              DCB      0x00,0x08
000416  0070              DCW      0x0070
000418  0008              DCB      0x00,0x08
00041a  0030              DCW      0x0030
00041c  0009              DCB      0x00,0x09
00041e  00c1              DCW      0x00c1
000420  1007              DCB      0x10,0x07
000422  000a              DCW      0x000a
000424  0008              DCB      0x00,0x08
000426  0060              DCW      0x0060
000428  0008              DCB      0x00,0x08
00042a  0020              DCW      0x0020
00042c  0009              DCB      0x00,0x09
00042e  00a1              DCW      0x00a1
000430  0008              DCB      0x00,0x08
000432  0000              DCW      0x0000
000434  0008              DCB      0x00,0x08
000436  0080              DCW      0x0080
000438  0008              DCB      0x00,0x08
00043a  0040              DCW      0x0040
00043c  0009              DCB      0x00,0x09
00043e  00e1              DCW      0x00e1
000440  1007              DCB      0x10,0x07
000442  0006              DCW      0x0006
000444  0008              DCB      0x00,0x08
000446  0058              DCW      0x0058
000448  0008              DCB      0x00,0x08
00044a  0018              DCW      0x0018
00044c  0009              DCB      0x00,0x09
00044e  0091              DCW      0x0091
000450  1307              DCB      0x13,0x07
000452  003b              DCW      0x003b
000454  0008              DCB      0x00,0x08
000456  0078              DCW      0x0078
000458  0008              DCB      0x00,0x08
00045a  0038              DCW      0x0038
00045c  0009              DCB      0x00,0x09
00045e  00d1              DCW      0x00d1
000460  1107              DCB      0x11,0x07
000462  0011              DCW      0x0011
000464  0008              DCB      0x00,0x08
000466  0068              DCW      0x0068
000468  0008              DCB      0x00,0x08
00046a  0028              DCW      0x0028
00046c  0009              DCB      0x00,0x09
00046e  00b1              DCW      0x00b1
000470  0008              DCB      0x00,0x08
000472  0008              DCW      0x0008
000474  0008              DCB      0x00,0x08
000476  0088              DCW      0x0088
000478  0008              DCB      0x00,0x08
00047a  0048              DCW      0x0048
00047c  0009              DCB      0x00,0x09
00047e  00f1              DCW      0x00f1
000480  1007              DCB      0x10,0x07
000482  0004              DCW      0x0004
000484  0008              DCB      0x00,0x08
000486  0054              DCW      0x0054
000488  0008              DCB      0x00,0x08
00048a  0014              DCW      0x0014
00048c  1508              DCB      0x15,0x08
00048e  00e3              DCW      0x00e3
000490  1307              DCB      0x13,0x07
000492  002b              DCW      0x002b
000494  0008              DCB      0x00,0x08
000496  0074              DCW      0x0074
000498  0008              DCB      0x00,0x08
00049a  0034              DCW      0x0034
00049c  0009              DCB      0x00,0x09
00049e  00c9              DCW      0x00c9
0004a0  1107              DCB      0x11,0x07
0004a2  000d              DCW      0x000d
0004a4  0008              DCB      0x00,0x08
0004a6  0064              DCW      0x0064
0004a8  0008              DCB      0x00,0x08
0004aa  0024              DCW      0x0024
0004ac  0009              DCB      0x00,0x09
0004ae  00a9              DCW      0x00a9
0004b0  0008              DCB      0x00,0x08
0004b2  0004              DCW      0x0004
0004b4  0008              DCB      0x00,0x08
0004b6  0084              DCW      0x0084
0004b8  0008              DCB      0x00,0x08
0004ba  0044              DCW      0x0044
0004bc  0009              DCB      0x00,0x09
0004be  00e9              DCW      0x00e9
0004c0  1007              DCB      0x10,0x07
0004c2  0008              DCW      0x0008
0004c4  0008              DCB      0x00,0x08
0004c6  005c              DCW      0x005c
0004c8  0008              DCB      0x00,0x08
0004ca  001c              DCW      0x001c
0004cc  0009              DCB      0x00,0x09
0004ce  0099              DCW      0x0099
0004d0  1407              DCB      0x14,0x07
0004d2  0053              DCW      0x0053
0004d4  0008              DCB      0x00,0x08
0004d6  007c              DCW      0x007c
0004d8  0008              DCB      0x00,0x08
0004da  003c              DCW      0x003c
0004dc  0009              DCB      0x00,0x09
0004de  00d9              DCW      0x00d9
0004e0  1207              DCB      0x12,0x07
0004e2  0017              DCW      0x0017
0004e4  0008              DCB      0x00,0x08
0004e6  006c              DCW      0x006c
0004e8  0008              DCB      0x00,0x08
0004ea  002c              DCW      0x002c
0004ec  0009              DCB      0x00,0x09
0004ee  00b9              DCW      0x00b9
0004f0  0008              DCB      0x00,0x08
0004f2  000c              DCW      0x000c
0004f4  0008              DCB      0x00,0x08
0004f6  008c              DCW      0x008c
0004f8  0008              DCB      0x00,0x08
0004fa  004c              DCW      0x004c
0004fc  0009              DCB      0x00,0x09
0004fe  00f9              DCW      0x00f9
000500  1007              DCB      0x10,0x07
000502  0003              DCW      0x0003
000504  0008              DCB      0x00,0x08
000506  0052              DCW      0x0052
000508  0008              DCB      0x00,0x08
00050a  0012              DCW      0x0012
00050c  1508              DCB      0x15,0x08
00050e  00a3              DCW      0x00a3
000510  1307              DCB      0x13,0x07
000512  0023              DCW      0x0023
000514  0008              DCB      0x00,0x08
000516  0072              DCW      0x0072
000518  0008              DCB      0x00,0x08
00051a  0032              DCW      0x0032
00051c  0009              DCB      0x00,0x09
00051e  00c5              DCW      0x00c5
000520  1107              DCB      0x11,0x07
000522  000b              DCW      0x000b
000524  0008              DCB      0x00,0x08
000526  0062              DCW      0x0062
000528  0008              DCB      0x00,0x08
00052a  0022              DCW      0x0022
00052c  0009              DCB      0x00,0x09
00052e  00a5              DCW      0x00a5
000530  0008              DCB      0x00,0x08
000532  0002              DCW      0x0002
000534  0008              DCB      0x00,0x08
000536  0082              DCW      0x0082
000538  0008              DCB      0x00,0x08
00053a  0042              DCW      0x0042
00053c  0009              DCB      0x00,0x09
00053e  00e5              DCW      0x00e5
000540  1007              DCB      0x10,0x07
000542  0007              DCW      0x0007
000544  0008              DCB      0x00,0x08
000546  005a              DCW      0x005a
000548  0008              DCB      0x00,0x08
00054a  001a              DCW      0x001a
00054c  0009              DCB      0x00,0x09
00054e  0095              DCW      0x0095
000550  1407              DCB      0x14,0x07
000552  0043              DCW      0x0043
000554  0008              DCB      0x00,0x08
000556  007a              DCW      0x007a
000558  0008              DCB      0x00,0x08
00055a  003a              DCW      0x003a
00055c  0009              DCB      0x00,0x09
00055e  00d5              DCW      0x00d5
000560  1207              DCB      0x12,0x07
000562  0013              DCW      0x0013
000564  0008              DCB      0x00,0x08
000566  006a              DCW      0x006a
000568  0008              DCB      0x00,0x08
00056a  002a              DCW      0x002a
00056c  0009              DCB      0x00,0x09
00056e  00b5              DCW      0x00b5
000570  0008              DCB      0x00,0x08
000572  000a              DCW      0x000a
000574  0008              DCB      0x00,0x08
000576  008a              DCW      0x008a
000578  0008              DCB      0x00,0x08
00057a  004a              DCW      0x004a
00057c  0009              DCB      0x00,0x09
00057e  00f5              DCW      0x00f5
000580  1007              DCB      0x10,0x07
000582  0005              DCW      0x0005
000584  0008              DCB      0x00,0x08
000586  0056              DCW      0x0056
000588  0008              DCB      0x00,0x08
00058a  0016              DCW      0x0016
00058c  4008              DCB      0x40,0x08
00058e  0000              DCW      0x0000
000590  1307              DCB      0x13,0x07
000592  0033              DCW      0x0033
000594  0008              DCB      0x00,0x08
000596  0076              DCW      0x0076
000598  0008              DCB      0x00,0x08
00059a  0036              DCW      0x0036
00059c  0009              DCB      0x00,0x09
00059e  00cd              DCW      0x00cd
0005a0  1107              DCB      0x11,0x07
0005a2  000f              DCW      0x000f
0005a4  0008              DCB      0x00,0x08
0005a6  0066              DCW      0x0066
0005a8  0008              DCB      0x00,0x08
0005aa  0026              DCW      0x0026
0005ac  0009              DCB      0x00,0x09
0005ae  00ad              DCW      0x00ad
0005b0  0008              DCB      0x00,0x08
0005b2  0006              DCW      0x0006
0005b4  0008              DCB      0x00,0x08
0005b6  0086              DCW      0x0086
0005b8  0008              DCB      0x00,0x08
0005ba  0046              DCW      0x0046
0005bc  0009              DCB      0x00,0x09
0005be  00ed              DCW      0x00ed
0005c0  1007              DCB      0x10,0x07
0005c2  0009              DCW      0x0009
0005c4  0008              DCB      0x00,0x08
0005c6  005e              DCW      0x005e
0005c8  0008              DCB      0x00,0x08
0005ca  001e              DCW      0x001e
0005cc  0009              DCB      0x00,0x09
0005ce  009d              DCW      0x009d
0005d0  1407              DCB      0x14,0x07
0005d2  0063              DCW      0x0063
0005d4  0008              DCB      0x00,0x08
0005d6  007e              DCW      0x007e
0005d8  0008              DCB      0x00,0x08
0005da  003e              DCW      0x003e
0005dc  0009              DCB      0x00,0x09
0005de  00dd              DCW      0x00dd
0005e0  1207              DCB      0x12,0x07
0005e2  001b              DCW      0x001b
0005e4  0008              DCB      0x00,0x08
0005e6  006e              DCW      0x006e
0005e8  0008              DCB      0x00,0x08
0005ea  002e              DCW      0x002e
0005ec  0009              DCB      0x00,0x09
0005ee  00bd              DCW      0x00bd
0005f0  0008              DCB      0x00,0x08
0005f2  000e              DCW      0x000e
0005f4  0008              DCB      0x00,0x08
0005f6  008e              DCW      0x008e
0005f8  0008              DCB      0x00,0x08
0005fa  004e              DCW      0x004e
0005fc  0009              DCB      0x00,0x09
0005fe  00fd              DCW      0x00fd
000600  6007              DCB      0x60,0x07
000602  0000              DCW      0x0000
000604  0008              DCB      0x00,0x08
000606  0051              DCW      0x0051
000608  0008              DCB      0x00,0x08
00060a  0011              DCW      0x0011
00060c  1508              DCB      0x15,0x08
00060e  0083              DCW      0x0083
000610  1207              DCB      0x12,0x07
000612  001f              DCW      0x001f
000614  0008              DCB      0x00,0x08
000616  0071              DCW      0x0071
000618  0008              DCB      0x00,0x08
00061a  0031              DCW      0x0031
00061c  0009              DCB      0x00,0x09
00061e  00c3              DCW      0x00c3
000620  1007              DCB      0x10,0x07
000622  000a              DCW      0x000a
000624  0008              DCB      0x00,0x08
000626  0061              DCW      0x0061
000628  0008              DCB      0x00,0x08
00062a  0021              DCW      0x0021
00062c  0009              DCB      0x00,0x09
00062e  00a3              DCW      0x00a3
000630  0008              DCB      0x00,0x08
000632  0001              DCW      0x0001
000634  0008              DCB      0x00,0x08
000636  0081              DCW      0x0081
000638  0008              DCB      0x00,0x08
00063a  0041              DCW      0x0041
00063c  0009              DCB      0x00,0x09
00063e  00e3              DCW      0x00e3
000640  1007              DCB      0x10,0x07
000642  0006              DCW      0x0006
000644  0008              DCB      0x00,0x08
000646  0059              DCW      0x0059
000648  0008              DCB      0x00,0x08
00064a  0019              DCW      0x0019
00064c  0009              DCB      0x00,0x09
00064e  0093              DCW      0x0093
000650  1307              DCB      0x13,0x07
000652  003b              DCW      0x003b
000654  0008              DCB      0x00,0x08
000656  0079              DCW      0x0079
000658  0008              DCB      0x00,0x08
00065a  0039              DCW      0x0039
00065c  0009              DCB      0x00,0x09
00065e  00d3              DCW      0x00d3
000660  1107              DCB      0x11,0x07
000662  0011              DCW      0x0011
000664  0008              DCB      0x00,0x08
000666  0069              DCW      0x0069
000668  0008              DCB      0x00,0x08
00066a  0029              DCW      0x0029
00066c  0009              DCB      0x00,0x09
00066e  00b3              DCW      0x00b3
000670  0008              DCB      0x00,0x08
000672  0009              DCW      0x0009
000674  0008              DCB      0x00,0x08
000676  0089              DCW      0x0089
000678  0008              DCB      0x00,0x08
00067a  0049              DCW      0x0049
00067c  0009              DCB      0x00,0x09
00067e  00f3              DCW      0x00f3
000680  1007              DCB      0x10,0x07
000682  0004              DCW      0x0004
000684  0008              DCB      0x00,0x08
000686  0055              DCW      0x0055
000688  0008              DCB      0x00,0x08
00068a  0015              DCW      0x0015
00068c  1008              DCB      0x10,0x08
00068e  0102              DCW      0x0102
000690  1307              DCB      0x13,0x07
000692  002b              DCW      0x002b
000694  0008              DCB      0x00,0x08
000696  0075              DCW      0x0075
000698  0008              DCB      0x00,0x08
00069a  0035              DCW      0x0035
00069c  0009              DCB      0x00,0x09
00069e  00cb              DCW      0x00cb
0006a0  1107              DCB      0x11,0x07
0006a2  000d              DCW      0x000d
0006a4  0008              DCB      0x00,0x08
0006a6  0065              DCW      0x0065
0006a8  0008              DCB      0x00,0x08
0006aa  0025              DCW      0x0025
0006ac  0009              DCB      0x00,0x09
0006ae  00ab              DCW      0x00ab
0006b0  0008              DCB      0x00,0x08
0006b2  0005              DCW      0x0005
0006b4  0008              DCB      0x00,0x08
0006b6  0085              DCW      0x0085
0006b8  0008              DCB      0x00,0x08
0006ba  0045              DCW      0x0045
0006bc  0009              DCB      0x00,0x09
0006be  00eb              DCW      0x00eb
0006c0  1007              DCB      0x10,0x07
0006c2  0008              DCW      0x0008
0006c4  0008              DCB      0x00,0x08
0006c6  005d              DCW      0x005d
0006c8  0008              DCB      0x00,0x08
0006ca  001d              DCW      0x001d
0006cc  0009              DCB      0x00,0x09
0006ce  009b              DCW      0x009b
0006d0  1407              DCB      0x14,0x07
0006d2  0053              DCW      0x0053
0006d4  0008              DCB      0x00,0x08
0006d6  007d              DCW      0x007d
0006d8  0008              DCB      0x00,0x08
0006da  003d              DCW      0x003d
0006dc  0009              DCB      0x00,0x09
0006de  00db              DCW      0x00db
0006e0  1207              DCB      0x12,0x07
0006e2  0017              DCW      0x0017
0006e4  0008              DCB      0x00,0x08
0006e6  006d              DCW      0x006d
0006e8  0008              DCB      0x00,0x08
0006ea  002d              DCW      0x002d
0006ec  0009              DCB      0x00,0x09
0006ee  00bb              DCW      0x00bb
0006f0  0008              DCB      0x00,0x08
0006f2  000d              DCW      0x000d
0006f4  0008              DCB      0x00,0x08
0006f6  008d              DCW      0x008d
0006f8  0008              DCB      0x00,0x08
0006fa  004d              DCW      0x004d
0006fc  0009              DCB      0x00,0x09
0006fe  00fb              DCW      0x00fb
000700  1007              DCB      0x10,0x07
000702  0003              DCW      0x0003
000704  0008              DCB      0x00,0x08
000706  0053              DCW      0x0053
000708  0008              DCB      0x00,0x08
00070a  0013              DCW      0x0013
00070c  1508              DCB      0x15,0x08
00070e  00c3              DCW      0x00c3
000710  1307              DCB      0x13,0x07
000712  0023              DCW      0x0023
000714  0008              DCB      0x00,0x08
000716  0073              DCW      0x0073
000718  0008              DCB      0x00,0x08
00071a  0033              DCW      0x0033
00071c  0009              DCB      0x00,0x09
00071e  00c7              DCW      0x00c7
000720  1107              DCB      0x11,0x07
000722  000b              DCW      0x000b
000724  0008              DCB      0x00,0x08
000726  0063              DCW      0x0063
000728  0008              DCB      0x00,0x08
00072a  0023              DCW      0x0023
00072c  0009              DCB      0x00,0x09
00072e  00a7              DCW      0x00a7
000730  0008              DCB      0x00,0x08
000732  0003              DCW      0x0003
000734  0008              DCB      0x00,0x08
000736  0083              DCW      0x0083
000738  0008              DCB      0x00,0x08
00073a  0043              DCW      0x0043
00073c  0009              DCB      0x00,0x09
00073e  00e7              DCW      0x00e7
000740  1007              DCB      0x10,0x07
000742  0007              DCW      0x0007
000744  0008              DCB      0x00,0x08
000746  005b              DCW      0x005b
000748  0008              DCB      0x00,0x08
00074a  001b              DCW      0x001b
00074c  0009              DCB      0x00,0x09
00074e  0097              DCW      0x0097
000750  1407              DCB      0x14,0x07
000752  0043              DCW      0x0043
000754  0008              DCB      0x00,0x08
000756  007b              DCW      0x007b
000758  0008              DCB      0x00,0x08
00075a  003b              DCW      0x003b
00075c  0009              DCB      0x00,0x09
00075e  00d7              DCW      0x00d7
000760  1207              DCB      0x12,0x07
000762  0013              DCW      0x0013
000764  0008              DCB      0x00,0x08
000766  006b              DCW      0x006b
000768  0008              DCB      0x00,0x08
00076a  002b              DCW      0x002b
00076c  0009              DCB      0x00,0x09
00076e  00b7              DCW      0x00b7
000770  0008              DCB      0x00,0x08
000772  000b              DCW      0x000b
000774  0008              DCB      0x00,0x08
000776  008b              DCW      0x008b
000778  0008              DCB      0x00,0x08
00077a  004b              DCW      0x004b
00077c  0009              DCB      0x00,0x09
00077e  00f7              DCW      0x00f7
000780  1007              DCB      0x10,0x07
000782  0005              DCW      0x0005
000784  0008              DCB      0x00,0x08
000786  0057              DCW      0x0057
000788  0008              DCB      0x00,0x08
00078a  0017              DCW      0x0017
00078c  4008              DCB      0x40,0x08
00078e  0000              DCW      0x0000
000790  1307              DCB      0x13,0x07
000792  0033              DCW      0x0033
000794  0008              DCB      0x00,0x08
000796  0077              DCW      0x0077
000798  0008              DCB      0x00,0x08
00079a  0037              DCW      0x0037
00079c  0009              DCB      0x00,0x09
00079e  00cf              DCW      0x00cf
0007a0  1107              DCB      0x11,0x07
0007a2  000f              DCW      0x000f
0007a4  0008              DCB      0x00,0x08
0007a6  0067              DCW      0x0067
0007a8  0008              DCB      0x00,0x08
0007aa  0027              DCW      0x0027
0007ac  0009              DCB      0x00,0x09
0007ae  00af              DCW      0x00af
0007b0  0008              DCB      0x00,0x08
0007b2  0007              DCW      0x0007
0007b4  0008              DCB      0x00,0x08
0007b6  0087              DCW      0x0087
0007b8  0008              DCB      0x00,0x08
0007ba  0047              DCW      0x0047
0007bc  0009              DCB      0x00,0x09
0007be  00ef              DCW      0x00ef
0007c0  1007              DCB      0x10,0x07
0007c2  0009              DCW      0x0009
0007c4  0008              DCB      0x00,0x08
0007c6  005f              DCW      0x005f
0007c8  0008              DCB      0x00,0x08
0007ca  001f              DCW      0x001f
0007cc  0009              DCB      0x00,0x09
0007ce  009f              DCW      0x009f
0007d0  1407              DCB      0x14,0x07
0007d2  0063              DCW      0x0063
0007d4  0008              DCB      0x00,0x08
0007d6  007f              DCW      0x007f
0007d8  0008              DCB      0x00,0x08
0007da  003f              DCW      0x003f
0007dc  0009              DCB      0x00,0x09
0007de  00df              DCW      0x00df
0007e0  1207              DCB      0x12,0x07
0007e2  001b              DCW      0x001b
0007e4  0008              DCB      0x00,0x08
0007e6  006f              DCW      0x006f
0007e8  0008              DCB      0x00,0x08
0007ea  002f              DCW      0x002f
0007ec  0009              DCB      0x00,0x09
0007ee  00bf              DCW      0x00bf
0007f0  0008              DCB      0x00,0x08
0007f2  000f              DCW      0x000f
0007f4  0008              DCB      0x00,0x08
0007f6  008f              DCW      0x008f
0007f8  0008              DCB      0x00,0x08
0007fa  004f              DCW      0x004f
0007fc  0009              DCB      0x00,0x09
0007fe  00ff              DCW      0x00ff
                  distfix
000800  1005              DCB      0x10,0x05
000802  0001              DCW      0x0001
000804  1705              DCB      0x17,0x05
000806  0101              DCW      0x0101
000808  1305              DCB      0x13,0x05
00080a  0011              DCW      0x0011
00080c  1b05              DCB      0x1b,0x05
00080e  1001              DCW      0x1001
000810  1105              DCB      0x11,0x05
000812  0005              DCW      0x0005
000814  1905              DCB      0x19,0x05
000816  0401              DCW      0x0401
000818  1505              DCB      0x15,0x05
00081a  0041              DCW      0x0041
00081c  1d05              DCB      0x1d,0x05
00081e  4001              DCW      0x4001
000820  1005              DCB      0x10,0x05
000822  0003              DCW      0x0003
000824  1805              DCB      0x18,0x05
000826  0201              DCW      0x0201
000828  1405              DCB      0x14,0x05
00082a  0021              DCW      0x0021
00082c  1c05              DCB      0x1c,0x05
00082e  2001              DCW      0x2001
000830  1205              DCB      0x12,0x05
000832  0009              DCW      0x0009
000834  1a05              DCB      0x1a,0x05
000836  0801              DCW      0x0801
000838  1605              DCB      0x16,0x05
00083a  0081              DCW      0x0081
00083c  4005              DCB      0x40,0x05
00083e  0000              DCW      0x0000
000840  1005              DCB      0x10,0x05
000842  0002              DCW      0x0002
000844  1705              DCB      0x17,0x05
000846  0181              DCW      0x0181
000848  1305              DCB      0x13,0x05
00084a  0019              DCW      0x0019
00084c  1b05              DCB      0x1b,0x05
00084e  1801              DCW      0x1801
000850  1105              DCB      0x11,0x05
000852  0007              DCW      0x0007
000854  1905              DCB      0x19,0x05
000856  0601              DCW      0x0601
000858  1505              DCB      0x15,0x05
00085a  0061              DCW      0x0061
00085c  1d05              DCB      0x1d,0x05
00085e  6001              DCW      0x6001
000860  1005              DCB      0x10,0x05
000862  0004              DCW      0x0004
000864  1805              DCB      0x18,0x05
000866  0301              DCW      0x0301
000868  1405              DCB      0x14,0x05
00086a  0031              DCW      0x0031
00086c  1c05              DCB      0x1c,0x05
00086e  3001              DCW      0x3001
000870  1205              DCB      0x12,0x05
000872  000d              DCW      0x000d
000874  1a05              DCB      0x1a,0x05
000876  0c01              DCW      0x0c01
000878  1605              DCB      0x16,0x05
00087a  00c1              DCW      0x00c1
00087c  4005              DCB      0x40,0x05
00087e  0000              DCW      0x0000
                  order
000880  00100011          DCW      0x0010,0x0011
000884  00120000          DCW      0x0012,0x0000
000888  00080007          DCW      0x0008,0x0007
00088c  00090006          DCW      0x0009,0x0006
000890  000a0005          DCW      0x000a,0x0005
000894  000b0004          DCW      0x000b,0x0004
000898  000c0003          DCW      0x000c,0x0003
00089c  000d0002          DCW      0x000d,0x0002
0008a0  000e0001          DCW      0x000e,0x0001
0008a4  000f              DCW      0x000f
