; generated by ARM C/C++ Compiler, 4.1 [Build 791]
; commandline ArmCC [--list --debug -c --asm --interleave -o.\obj\jdtrans.o --asm_dir=.\list\ --list_dir=.\list\ --depend=.\obj\jdtrans.d --cpu=Cortex-M3 --apcs=interwork -O0 -I.\FWlib\inc -I.\user -I.\CM3 -I.\TFT -I.\GUI\AntiAlias -I.\GUI\Config -I.\GUI\ConvertColor -I.\GUI\ConvertMono -I.\GUI\Core -I.\GUI\Font -I.\GUI\GUI_X -I.\GUI\JPEG -I.\GUI\LCDDriver -I.\GUI\MemDev -I.\GUI\MultiLayer -I.\GUI\Widget -I.\GUI\WM -Id:\Keil\ARM\CMSIS\Include -Id:\Keil\ARM\INC\ST\STM32F10x -DUSE_STDPERIPH_DRIVER -DSTM32F10X_HD -DUSE_STM3210B_EVAL --omf_browse=.\obj\jdtrans.crf GUI\JPEG\jdtrans.c]
                          THUMB

                          AREA ||.text||, CODE, READONLY, ALIGN=1

                  transdecode_master_selection PROC
;;;96     LOCAL(void)
;;;97     transdecode_master_selection (j_decompress_ptr cinfo)
000000  b510              PUSH     {r4,lr}
;;;98     {
000002  4604              MOV      r4,r0
;;;99       /* This is effectively a buffered-image operation. */
;;;100      cinfo->buffered_image = TRUE;
000004  f04f0001          MOV      r0,#1
000008  6420              STR      r0,[r4,#0x40]
;;;101    
;;;102      /* Entropy decoding: either Huffman or arithmetic coding. */
;;;103      if (cinfo->arith_code) {
00000a  f8d400e0          LDR      r0,[r4,#0xe0]
00000e  b140              CBZ      r0,|L1.34|
;;;104        ERREXIT(cinfo, JERR_ARITH_NOTIMPL);
000010  f04f0001          MOV      r0,#1
000014  6821              LDR      r1,[r4,#0]
000016  6148              STR      r0,[r1,#0x14]
000018  6820              LDR      r0,[r4,#0]
00001a  6801              LDR      r1,[r0,#0]
00001c  4620              MOV      r0,r4
00001e  4788              BLX      r1
000020  e009              B        |L1.54|
                  |L1.34|
;;;105      } else {
;;;106        if (cinfo->progressive_mode) {
000022  f8d400dc          LDR      r0,[r4,#0xdc]
000026  b118              CBZ      r0,|L1.48|
;;;107    #ifdef D_PROGRESSIVE_SUPPORTED
;;;108          jinit_phuff_decoder(cinfo);
000028  4620              MOV      r0,r4
00002a  f7fffffe          BL       jinit_phuff_decoder
00002e  e002              B        |L1.54|
                  |L1.48|
;;;109    #else
;;;110          ERREXIT(cinfo, JERR_NOT_COMPILED);
;;;111    #endif
;;;112        } else
;;;113          jinit_huff_decoder(cinfo);
000030  4620              MOV      r0,r4
000032  f7fffffe          BL       jinit_huff_decoder
                  |L1.54|
;;;114      }
;;;115    
;;;116      /* Always get a full-image coefficient buffer. */
;;;117      jinit_d_coef_controller(cinfo, TRUE);
000036  2101              MOVS     r1,#1
000038  4620              MOV      r0,r4
00003a  f7fffffe          BL       jinit_d_coef_controller
;;;118    
;;;119      /* We can now tell the memory manager to allocate virtual arrays. */
;;;120      (*cinfo->mem->realize_virt_arrays) ((j_common_ptr) cinfo);
00003e  6860              LDR      r0,[r4,#4]
000040  6981              LDR      r1,[r0,#0x18]
000042  4620              MOV      r0,r4
000044  4788              BLX      r1
;;;121    
;;;122      /* Initialize input side of decompressor to consume first scan. */
;;;123      (*cinfo->inputctl->start_input_pass) (cinfo);
000046  f8d401b4          LDR      r0,[r4,#0x1b4]
00004a  6881              LDR      r1,[r0,#8]
00004c  4620              MOV      r0,r4
00004e  4788              BLX      r1
;;;124    
;;;125      /* Initialize progress monitoring. */
;;;126      if (cinfo->progress != NULL) {
000050  68a0              LDR      r0,[r4,#8]
000052  b318              CBZ      r0,|L1.156|
;;;127        int nscans;
;;;128        /* Estimate number of scans to set pass_limit. */
;;;129        if (cinfo->progressive_mode) {
000054  f8d410dc          LDR      r1,[r4,#0xdc]
000058  b129              CBZ      r1,|L1.102|
;;;130          /* Arbitrarily estimate 2 interleaved DC scans + 3 AC scans/component. */
;;;131          nscans = 2 + 3 * cinfo->num_components;
00005a  6a61              LDR      r1,[r4,#0x24]
00005c  eb010141          ADD      r1,r1,r1,LSL #1
000060  f1010002          ADD      r0,r1,#2
000064  e007              B        |L1.118|
                  |L1.102|
;;;132        } else if (cinfo->inputctl->has_multiple_scans) {
000066  f8d411b4          LDR      r1,[r4,#0x1b4]
00006a  6909              LDR      r1,[r1,#0x10]
00006c  b109              CBZ      r1,|L1.114|
;;;133          /* For a nonprogressive multiscan file, estimate 1 scan per component. */
;;;134          nscans = cinfo->num_components;
00006e  6a60              LDR      r0,[r4,#0x24]
000070  e001              B        |L1.118|
                  |L1.114|
;;;135        } else {
;;;136          nscans = 1;
000072  f04f0001          MOV      r0,#1
                  |L1.118|
;;;137        }
;;;138        cinfo->progress->pass_counter = 0L;
000076  f04f0100          MOV      r1,#0
00007a  68a2              LDR      r2,[r4,#8]
00007c  6051              STR      r1,[r2,#4]
;;;139        cinfo->progress->pass_limit = (long) cinfo->total_iMCU_rows * nscans;
00007e  f8d41140          LDR      r1,[r4,#0x140]
000082  fb01f100          MUL      r1,r1,r0
000086  68a2              LDR      r2,[r4,#8]
000088  6091              STR      r1,[r2,#8]
;;;140        cinfo->progress->completed_passes = 0;
00008a  f04f0100          MOV      r1,#0
00008e  68a2              LDR      r2,[r4,#8]
000090  60d1              STR      r1,[r2,#0xc]
;;;141        cinfo->progress->total_passes = 1;
000092  f04f0101          MOV      r1,#1
000096  68a2              LDR      r2,[r4,#8]
000098  6111              STR      r1,[r2,#0x10]
;;;142      }
00009a  bf00              NOP      
                  |L1.156|
;;;143    }
00009c  bd10              POP      {r4,pc}
                          ENDP

                  jpeg_read_coefficients PROC
;;;44     GLOBAL(jvirt_barray_ptr *)
;;;45     jpeg_read_coefficients (j_decompress_ptr cinfo)
00009e  b570              PUSH     {r4-r6,lr}
;;;46     {
0000a0  4604              MOV      r4,r0
;;;47       if (cinfo->global_state == DSTATE_READY) {
0000a2  6960              LDR      r0,[r4,#0x14]
0000a4  28ca              CMP      r0,#0xca
0000a6  d105              BNE      |L1.180|
;;;48         /* First call: initialize active modules */
;;;49         transdecode_master_selection(cinfo);
0000a8  4620              MOV      r0,r4
0000aa  f7fffffe          BL       transdecode_master_selection
;;;50         cinfo->global_state = DSTATE_RDCOEFS;
0000ae  f04f00d1          MOV      r0,#0xd1
0000b2  6160              STR      r0,[r4,#0x14]
                  |L1.180|
;;;51       }
;;;52       if (cinfo->global_state == DSTATE_RDCOEFS) {
0000b4  6960              LDR      r0,[r4,#0x14]
0000b6  28d1              CMP      r0,#0xd1
0000b8  d12e              BNE      |L1.280|
;;;53         /* Absorb whole file into the coef buffer */
;;;54         while(1) {
0000ba  e028              B        |L1.270|
                  |L1.188|
;;;55           int retcode;
;;;56           /* Call progress monitor hook if present */
;;;57           if (cinfo->progress != NULL)
0000bc  68a0              LDR      r0,[r4,#8]
0000be  b118              CBZ      r0,|L1.200|
;;;58     	(*cinfo->progress->progress_monitor) ((j_common_ptr) cinfo);
0000c0  68a0              LDR      r0,[r4,#8]
0000c2  6801              LDR      r1,[r0,#0]
0000c4  4620              MOV      r0,r4
0000c6  4788              BLX      r1
                  |L1.200|
;;;59           /* Absorb some more input */
;;;60           retcode = (*cinfo->inputctl->consume_input) (cinfo);
0000c8  f8d401b4          LDR      r0,[r4,#0x1b4]
0000cc  6801              LDR      r1,[r0,#0]
0000ce  4620              MOV      r0,r4
0000d0  4788              BLX      r1
0000d2  4605              MOV      r5,r0
;;;61           if (retcode == JPEG_SUSPENDED)
0000d4  b90d              CBNZ     r5,|L1.218|
;;;62     	return NULL;
0000d6  2000              MOVS     r0,#0
                  |L1.216|
;;;63           if (retcode == JPEG_REACHED_EOI)
;;;64     	break;
;;;65           /* Advance progress counter if appropriate */
;;;66           if (cinfo->progress != NULL &&
;;;67     	  (retcode == JPEG_ROW_COMPLETED || retcode == JPEG_REACHED_SOS)) {
;;;68     	if (++cinfo->progress->pass_counter >= cinfo->progress->pass_limit) {
;;;69     	  /* startup underestimated number of scans; ratchet up one scan */
;;;70     	  cinfo->progress->pass_limit += (long) cinfo->total_iMCU_rows;
;;;71     	}
;;;72           }
;;;73         }
;;;74         /* Set state so that jpeg_finish_decompress does the right thing */
;;;75         cinfo->global_state = DSTATE_STOPPING;
;;;76       }
;;;77       /* At this point we should be in state DSTATE_STOPPING if being used
;;;78        * standalone, or in state DSTATE_BUFIMAGE if being invoked to get access
;;;79        * to the coefficients during a full buffered-image-mode decompression.
;;;80        */
;;;81       if ((cinfo->global_state == DSTATE_STOPPING ||
;;;82            cinfo->global_state == DSTATE_BUFIMAGE) && cinfo->buffered_image) {
;;;83         return cinfo->coef->coef_arrays;
;;;84       }
;;;85       /* Oops, improper usage */
;;;86       ERREXIT1(cinfo, JERR_BAD_STATE, cinfo->global_state);
;;;87       return NULL;			/* keep compiler happy */
;;;88     }
0000d8  bd70              POP      {r4-r6,pc}
                  |L1.218|
0000da  2d02              CMP      r5,#2                 ;63
0000dc  d100              BNE      |L1.224|
0000de  e017              B        |L1.272|
                  |L1.224|
0000e0  68a0              LDR      r0,[r4,#8]            ;66
0000e2  b198              CBZ      r0,|L1.268|
0000e4  2d03              CMP      r5,#3                 ;67
0000e6  d001              BEQ      |L1.236|
0000e8  2d01              CMP      r5,#1                 ;67
0000ea  d10f              BNE      |L1.268|
                  |L1.236|
0000ec  68a0              LDR      r0,[r4,#8]            ;68
0000ee  6840              LDR      r0,[r0,#4]            ;68
0000f0  1c40              ADDS     r0,r0,#1              ;68
0000f2  68a1              LDR      r1,[r4,#8]            ;68
0000f4  6048              STR      r0,[r1,#4]            ;68
0000f6  68a1              LDR      r1,[r4,#8]            ;68
0000f8  6889              LDR      r1,[r1,#8]            ;68
0000fa  4288              CMP      r0,r1                 ;68
0000fc  db06              BLT      |L1.268|
0000fe  68a0              LDR      r0,[r4,#8]            ;70
000100  6880              LDR      r0,[r0,#8]            ;70
000102  f8d41140          LDR      r1,[r4,#0x140]        ;70
000106  4408              ADD      r0,r0,r1              ;70
000108  68a1              LDR      r1,[r4,#8]            ;70
00010a  6088              STR      r0,[r1,#8]            ;70
                  |L1.268|
00010c  bf00              NOP                            ;73
                  |L1.270|
00010e  e7d5              B        |L1.188|
                  |L1.272|
000110  bf00              NOP                            ;64
000112  f04f00d2          MOV      r0,#0xd2              ;75
000116  6160              STR      r0,[r4,#0x14]         ;75
                  |L1.280|
000118  6960              LDR      r0,[r4,#0x14]         ;81
00011a  28d2              CMP      r0,#0xd2              ;81
00011c  d002              BEQ      |L1.292|
00011e  6960              LDR      r0,[r4,#0x14]         ;82
000120  28cf              CMP      r0,#0xcf              ;82
000122  d105              BNE      |L1.304|
                  |L1.292|
000124  6c20              LDR      r0,[r4,#0x40]         ;82
000126  b118              CBZ      r0,|L1.304|
000128  f8d401ac          LDR      r0,[r4,#0x1ac]        ;83
00012c  6900              LDR      r0,[r0,#0x10]         ;83
00012e  e7d3              B        |L1.216|
                  |L1.304|
000130  f04f0014          MOV      r0,#0x14              ;86
000134  6821              LDR      r1,[r4,#0]            ;86
000136  6148              STR      r0,[r1,#0x14]         ;86
000138  6821              LDR      r1,[r4,#0]            ;86
00013a  6960              LDR      r0,[r4,#0x14]         ;86
00013c  6188              STR      r0,[r1,#0x18]         ;86
00013e  6820              LDR      r0,[r4,#0]            ;86
000140  6801              LDR      r1,[r0,#0]            ;86
000142  4620              MOV      r0,r4                 ;86
000144  4788              BLX      r1                    ;86
000146  2000              MOVS     r0,#0                 ;87
000148  e7c6              B        |L1.216|
;;;89     
                          ENDP

